
/home/fuchsia/zjv2/dream_cup/xs-env/nexus-am/apps/microbench/build/microbench-riscv64-nutshell_rv64im.elf:     file format elf64-littleriscv


Disassembly of section .text:

0000000080000000 <_start>:
    80000000:	00000413          	li	s0,0
    80000004:	0000b117          	auipc	sp,0xb
    80000008:	ffc10113          	addi	sp,sp,-4 # 8000b000 <_end>
    8000000c:	0a5010ef          	jal	ra,800018b0 <_trm_init>

0000000080000010 <bench_alloc>:
    80000010:	00003597          	auipc	a1,0x3
    80000014:	cc858593          	addi	a1,a1,-824 # 80002cd8 <hbrk>
    80000018:	0005b683          	ld	a3,0(a1)
    8000001c:	00750713          	addi	a4,a0,7
    80000020:	00003797          	auipc	a5,0x3
    80000024:	ca878793          	addi	a5,a5,-856 # 80002cc8 <_heap>
    80000028:	ff010113          	addi	sp,sp,-16
    8000002c:	ff877713          	andi	a4,a4,-8
    80000030:	0007b603          	ld	a2,0(a5)
    80000034:	00113423          	sd	ra,8(sp)
    80000038:	00e68733          	add	a4,a3,a4
    8000003c:	00e5b023          	sd	a4,0(a1)
    80000040:	04c76263          	bltu	a4,a2,80000084 <bench_alloc+0x74>
    80000044:	0087b783          	ld	a5,8(a5)
    80000048:	02f77e63          	bgeu	a4,a5,80000084 <bench_alloc+0x74>
    8000004c:	00068793          	mv	a5,a3
    80000050:	00d70863          	beq	a4,a3,80000060 <bench_alloc+0x50>
    80000054:	0007b023          	sd	zero,0(a5)
    80000058:	00878793          	addi	a5,a5,8
    8000005c:	fef71ce3          	bne	a4,a5,80000054 <bench_alloc+0x44>
    80000060:	00003797          	auipc	a5,0x3
    80000064:	c807b783          	ld	a5,-896(a5) # 80002ce0 <setting>
    80000068:	0087b783          	ld	a5,8(a5)
    8000006c:	40c70733          	sub	a4,a4,a2
    80000070:	02e7ea63          	bltu	a5,a4,800000a4 <bench_alloc+0x94>
    80000074:	00813083          	ld	ra,8(sp)
    80000078:	00068513          	mv	a0,a3
    8000007c:	01010113          	addi	sp,sp,16
    80000080:	00008067          	ret
    80000084:	08d00613          	li	a2,141
    80000088:	00003597          	auipc	a1,0x3
    8000008c:	a7058593          	addi	a1,a1,-1424 # 80002af8 <printf_+0x250>
    80000090:	00003517          	auipc	a0,0x3
    80000094:	ab850513          	addi	a0,a0,-1352 # 80002b48 <printf_+0x2a0>
    80000098:	011020ef          	jal	ra,800028a8 <printf_>
    8000009c:	00100513          	li	a0,1
    800000a0:	7ec010ef          	jal	ra,8000188c <_halt>
    800000a4:	09100613          	li	a2,145
    800000a8:	fe1ff06f          	j	80000088 <bench_alloc+0x78>

00000000800000ac <bench_free>:
    800000ac:	00008067          	ret

00000000800000b0 <bench_srand>:
    800000b0:	03151513          	slli	a0,a0,0x31
    800000b4:	03155513          	srli	a0,a0,0x31
    800000b8:	00003797          	auipc	a5,0x3
    800000bc:	c0a7a423          	sw	a0,-1016(a5) # 80002cc0 <seed>
    800000c0:	00008067          	ret

00000000800000c4 <bench_rand>:
    800000c4:	00003697          	auipc	a3,0x3
    800000c8:	bfc68693          	addi	a3,a3,-1028 # 80002cc0 <seed>
    800000cc:	0006a703          	lw	a4,0(a3)
    800000d0:	000347b7          	lui	a5,0x34
    800000d4:	3fd7879b          	addiw	a5,a5,1021
    800000d8:	02e787bb          	mulw	a5,a5,a4
    800000dc:	0026a737          	lui	a4,0x26a
    800000e0:	ec37071b          	addiw	a4,a4,-317
    800000e4:	00e787bb          	addw	a5,a5,a4
    800000e8:	02179513          	slli	a0,a5,0x21
    800000ec:	00f6a023          	sw	a5,0(a3)
    800000f0:	03155513          	srli	a0,a0,0x31
    800000f4:	00008067          	ret

00000000800000f8 <checksum>:
    800000f8:	00450613          	addi	a2,a0,4
    800000fc:	06b67463          	bgeu	a2,a1,80000164 <checksum+0x6c>
    80000100:	811ca6b7          	lui	a3,0x811ca
    80000104:	01000837          	lui	a6,0x1000
    80000108:	dc568693          	addi	a3,a3,-571 # ffffffff811c9dc5 <_pmem_end+0xfffffffef91c9dc5>
    8000010c:	1938081b          	addiw	a6,a6,403
    80000110:	00050793          	mv	a5,a0
    80000114:	0007c703          	lbu	a4,0(a5) # 34000 <_start-0x7ffcc000>
    80000118:	00178793          	addi	a5,a5,1
    8000011c:	00e6c733          	xor	a4,a3,a4
    80000120:	02e806bb          	mulw	a3,a6,a4
    80000124:	fef618e3          	bne	a2,a5,80000114 <checksum+0x1c>
    80000128:	00460613          	addi	a2,a2,4
    8000012c:	00450513          	addi	a0,a0,4
    80000130:	feb660e3          	bltu	a2,a1,80000110 <checksum+0x18>
    80000134:	013267b7          	lui	a5,0x1326
    80000138:	1937879b          	addiw	a5,a5,403
    8000013c:	02f707bb          	mulw	a5,a4,a5
    80000140:	4077d71b          	sraiw	a4,a5,0x7
    80000144:	00e7c733          	xor	a4,a5,a4
    80000148:	0037179b          	slliw	a5,a4,0x3
    8000014c:	00e7873b          	addw	a4,a5,a4
    80000150:	4117579b          	sraiw	a5,a4,0x11
    80000154:	00f747b3          	xor	a5,a4,a5
    80000158:	0057951b          	slliw	a0,a5,0x5
    8000015c:	00f5053b          	addw	a0,a0,a5
    80000160:	00008067          	ret
    80000164:	a6f00537          	lui	a0,0xa6f00
    80000168:	79e50513          	addi	a0,a0,1950 # ffffffffa6f0079e <_pmem_end+0xffffffff1ef0079e>
    8000016c:	00008067          	ret

0000000080000170 <bench_dinic_prepare>:
    80000170:	00003797          	auipc	a5,0x3
    80000174:	b707b783          	ld	a5,-1168(a5) # 80002ce0 <setting>
    80000178:	0007a783          	lw	a5,0(a5)
    8000017c:	f9010113          	addi	sp,sp,-112
    80000180:	05213823          	sd	s2,80(sp)
    80000184:	00100513          	li	a0,1
    80000188:	00003917          	auipc	s2,0x3
    8000018c:	b7890913          	addi	s2,s2,-1160 # 80002d00 <_ZL1N>
    80000190:	06113423          	sd	ra,104(sp)
    80000194:	00f92023          	sw	a5,0(s2)
    80000198:	06813023          	sd	s0,96(sp)
    8000019c:	04913c23          	sd	s1,88(sp)
    800001a0:	05313423          	sd	s3,72(sp)
    800001a4:	05413023          	sd	s4,64(sp)
    800001a8:	03513c23          	sd	s5,56(sp)
    800001ac:	03613823          	sd	s6,48(sp)
    800001b0:	03713423          	sd	s7,40(sp)
    800001b4:	03813023          	sd	s8,32(sp)
    800001b8:	01913c23          	sd	s9,24(sp)
    800001bc:	01a13823          	sd	s10,16(sp)
    800001c0:	01b13423          	sd	s11,8(sp)
    800001c4:	eedff0ef          	jal	ra,800000b0 <bench_srand>
    800001c8:	04800513          	li	a0,72
    800001cc:	00092b83          	lw	s7,0(s2)
    800001d0:	e41ff0ef          	jal	ra,80000010 <bench_alloc>
    800001d4:	00092783          	lw	a5,0(s2)
    800001d8:	00003997          	auipc	s3,0x3
    800001dc:	b2098993          	addi	s3,s3,-1248 # 80002cf8 <_ZL1G>
    800001e0:	00050493          	mv	s1,a0
    800001e4:	0017879b          	addiw	a5,a5,1
    800001e8:	0017941b          	slliw	s0,a5,0x1
    800001ec:	ffe4079b          	addiw	a5,s0,-2
    800001f0:	4017d79b          	sraiw	a5,a5,0x1
    800001f4:	02f78a3b          	mulw	s4,a5,a5
    800001f8:	0017979b          	slliw	a5,a5,0x1
    800001fc:	00a9b023          	sd	a0,0(s3)
    80000200:	00040b1b          	sext.w	s6,s0
    80000204:	002b1a93          	slli	s5,s6,0x2
    80000208:	001b9c1b          	slliw	s8,s7,0x1
    8000020c:	001c0b9b          	addiw	s7,s8,1
    80000210:	00fa0a3b          	addw	s4,s4,a5
    80000214:	001a1a1b          	slliw	s4,s4,0x1
    80000218:	004a1513          	slli	a0,s4,0x4
    8000021c:	df5ff0ef          	jal	ra,80000010 <bench_alloc>
    80000220:	00a4b823          	sd	a0,16(s1)
    80000224:	000a8513          	mv	a0,s5
    80000228:	de9ff0ef          	jal	ra,80000010 <bench_alloc>
    8000022c:	00a4bc23          	sd	a0,24(s1)
    80000230:	002a1513          	slli	a0,s4,0x2
    80000234:	dddff0ef          	jal	ra,80000010 <bench_alloc>
    80000238:	02a4b023          	sd	a0,32(s1)
    8000023c:	000b0513          	mv	a0,s6
    80000240:	dd1ff0ef          	jal	ra,80000010 <bench_alloc>
    80000244:	04a4b023          	sd	a0,64(s1)
    80000248:	000a8513          	mv	a0,s5
    8000024c:	dc5ff0ef          	jal	ra,80000010 <bench_alloc>
    80000250:	02a4b423          	sd	a0,40(s1)
    80000254:	000a8513          	mv	a0,s5
    80000258:	db9ff0ef          	jal	ra,80000010 <bench_alloc>
    8000025c:	02a4b823          	sd	a0,48(s1)
    80000260:	000a8513          	mv	a0,s5
    80000264:	dadff0ef          	jal	ra,80000010 <bench_alloc>
    80000268:	02a4bc23          	sd	a0,56(s1)
    8000026c:	0084a023          	sw	s0,0(s1)
    80000270:	03605263          	blez	s6,80000294 <bench_dinic_prepare+0x124>
    80000274:	0184b783          	ld	a5,24(s1)
    80000278:	02041713          	slli	a4,s0,0x20
    8000027c:	01e75713          	srli	a4,a4,0x1e
    80000280:	00f70733          	add	a4,a4,a5
    80000284:	fff00693          	li	a3,-1
    80000288:	00d7a023          	sw	a3,0(a5)
    8000028c:	00478793          	addi	a5,a5,4
    80000290:	fee79ce3          	bne	a5,a4,80000288 <bench_dinic_prepare+0x118>
    80000294:	00092d03          	lw	s10,0(s2)
    80000298:	0004a223          	sw	zero,4(s1)
    8000029c:	00000b13          	li	s6,0
    800002a0:	00000493          	li	s1,0
    800002a4:	00a00a13          	li	s4,10
    800002a8:	25a05863          	blez	s10,800004f8 <bench_dinic_prepare+0x388>
    800002ac:	002b1a93          	slli	s5,s6,0x2
    800002b0:	00000c93          	li	s9,0
    800002b4:	0ba05e63          	blez	s10,80000370 <bench_dinic_prepare+0x200>
    800002b8:	0009b403          	ld	s0,0(s3)
    800002bc:	e09ff0ef          	jal	ra,800000c4 <bench_rand>
    800002c0:	0345753b          	remuw	a0,a0,s4
    800002c4:	019d07bb          	addw	a5,s10,s9
    800002c8:	00078813          	mv	a6,a5
    800002cc:	00279593          	slli	a1,a5,0x2
    800002d0:	00092d03          	lw	s10,0(s2)
    800002d4:	001c8c9b          	addiw	s9,s9,1
    800002d8:	0005079b          	sext.w	a5,a0
    800002dc:	08078863          	beqz	a5,8000036c <bench_dinic_prepare+0x1fc>
    800002e0:	00442703          	lw	a4,4(s0)
    800002e4:	01043783          	ld	a5,16(s0)
    800002e8:	01843603          	ld	a2,24(s0)
    800002ec:	00471693          	slli	a3,a4,0x4
    800002f0:	00d786b3          	add	a3,a5,a3
    800002f4:	0096a023          	sw	s1,0(a3)
    800002f8:	00a6a423          	sw	a0,8(a3)
    800002fc:	0106a223          	sw	a6,4(a3)
    80000300:	0006a623          	sw	zero,12(a3)
    80000304:	01560533          	add	a0,a2,s5
    80000308:	02043683          	ld	a3,32(s0)
    8000030c:	00052883          	lw	a7,0(a0)
    80000310:	00271713          	slli	a4,a4,0x2
    80000314:	00e68733          	add	a4,a3,a4
    80000318:	01172023          	sw	a7,0(a4) # 26a000 <_start-0x7fd96000>
    8000031c:	00442883          	lw	a7,4(s0)
    80000320:	00b60733          	add	a4,a2,a1
    80000324:	0018861b          	addiw	a2,a7,1
    80000328:	00c42223          	sw	a2,4(s0)
    8000032c:	01152023          	sw	a7,0(a0)
    80000330:	00442603          	lw	a2,4(s0)
    80000334:	00461593          	slli	a1,a2,0x4
    80000338:	00b787b3          	add	a5,a5,a1
    8000033c:	0107a023          	sw	a6,0(a5)
    80000340:	0097a223          	sw	s1,4(a5)
    80000344:	0007a423          	sw	zero,8(a5)
    80000348:	0007a623          	sw	zero,12(a5)
    8000034c:	00072783          	lw	a5,0(a4)
    80000350:	00261613          	slli	a2,a2,0x2
    80000354:	00c686b3          	add	a3,a3,a2
    80000358:	00f6a023          	sw	a5,0(a3)
    8000035c:	00442783          	lw	a5,4(s0)
    80000360:	0017869b          	addiw	a3,a5,1
    80000364:	00d42223          	sw	a3,4(s0)
    80000368:	00f72023          	sw	a5,0(a4)
    8000036c:	f5acc6e3          	blt	s9,s10,800002b8 <bench_dinic_prepare+0x148>
    80000370:	001b0b13          	addi	s6,s6,1
    80000374:	000b049b          	sext.w	s1,s6
    80000378:	f3a4cae3          	blt	s1,s10,800002ac <bench_dinic_prepare+0x13c>
    8000037c:	17a05e63          	blez	s10,800004f8 <bench_dinic_prepare+0x388>
    80000380:	002c1b13          	slli	s6,s8,0x2
    80000384:	002b9a93          	slli	s5,s7,0x2
    80000388:	00000c93          	li	s9,0
    8000038c:	00000d13          	li	s10,0
    80000390:	3e800a13          	li	s4,1000
    80000394:	0009b483          	ld	s1,0(s3)
    80000398:	d2dff0ef          	jal	ra,800000c4 <bench_rand>
    8000039c:	034577bb          	remuw	a5,a0,s4
    800003a0:	002c9813          	slli	a6,s9,0x2
    800003a4:	0009b403          	ld	s0,0(s3)
    800003a8:	00092d83          	lw	s11,0(s2)
    800003ac:	001c8c93          	addi	s9,s9,1
    800003b0:	00078513          	mv	a0,a5
    800003b4:	08078863          	beqz	a5,80000444 <bench_dinic_prepare+0x2d4>
    800003b8:	0044a703          	lw	a4,4(s1)
    800003bc:	0104b783          	ld	a5,16(s1)
    800003c0:	0184b603          	ld	a2,24(s1)
    800003c4:	00471693          	slli	a3,a4,0x4
    800003c8:	00d786b3          	add	a3,a5,a3
    800003cc:	0186a023          	sw	s8,0(a3)
    800003d0:	01a6a223          	sw	s10,4(a3)
    800003d4:	00a6a423          	sw	a0,8(a3)
    800003d8:	0006a623          	sw	zero,12(a3)
    800003dc:	016605b3          	add	a1,a2,s6
    800003e0:	0204b683          	ld	a3,32(s1)
    800003e4:	0005a503          	lw	a0,0(a1)
    800003e8:	00271713          	slli	a4,a4,0x2
    800003ec:	00e68733          	add	a4,a3,a4
    800003f0:	00a72023          	sw	a0,0(a4)
    800003f4:	0044a503          	lw	a0,4(s1)
    800003f8:	01060733          	add	a4,a2,a6
    800003fc:	0015061b          	addiw	a2,a0,1
    80000400:	00c4a223          	sw	a2,4(s1)
    80000404:	00a5a023          	sw	a0,0(a1)
    80000408:	0044a603          	lw	a2,4(s1)
    8000040c:	00461593          	slli	a1,a2,0x4
    80000410:	00b787b3          	add	a5,a5,a1
    80000414:	01a7a023          	sw	s10,0(a5)
    80000418:	0187a223          	sw	s8,4(a5)
    8000041c:	0007a423          	sw	zero,8(a5)
    80000420:	0007a623          	sw	zero,12(a5)
    80000424:	00072783          	lw	a5,0(a4)
    80000428:	00261613          	slli	a2,a2,0x2
    8000042c:	00c686b3          	add	a3,a3,a2
    80000430:	00f6a023          	sw	a5,0(a3)
    80000434:	0044a783          	lw	a5,4(s1)
    80000438:	0017869b          	addiw	a3,a5,1
    8000043c:	00d4a223          	sw	a3,4(s1)
    80000440:	00f72023          	sw	a5,0(a4)
    80000444:	c81ff0ef          	jal	ra,800000c4 <bench_rand>
    80000448:	0345773b          	remuw	a4,a0,s4
    8000044c:	01ad87bb          	addw	a5,s11,s10
    80000450:	00078813          	mv	a6,a5
    80000454:	00092883          	lw	a7,0(s2)
    80000458:	00279793          	slli	a5,a5,0x2
    8000045c:	000c8d1b          	sext.w	s10,s9
    80000460:	00070513          	mv	a0,a4
    80000464:	08070863          	beqz	a4,800004f4 <bench_dinic_prepare+0x384>
    80000468:	00442683          	lw	a3,4(s0)
    8000046c:	01043703          	ld	a4,16(s0)
    80000470:	01843583          	ld	a1,24(s0)
    80000474:	00469613          	slli	a2,a3,0x4
    80000478:	00c70633          	add	a2,a4,a2
    8000047c:	01062023          	sw	a6,0(a2)
    80000480:	01762223          	sw	s7,4(a2)
    80000484:	00a62423          	sw	a0,8(a2)
    80000488:	00062623          	sw	zero,12(a2)
    8000048c:	00f587b3          	add	a5,a1,a5
    80000490:	02043603          	ld	a2,32(s0)
    80000494:	0007a503          	lw	a0,0(a5)
    80000498:	00269693          	slli	a3,a3,0x2
    8000049c:	00d606b3          	add	a3,a2,a3
    800004a0:	00a6a023          	sw	a0,0(a3)
    800004a4:	00442503          	lw	a0,4(s0)
    800004a8:	015586b3          	add	a3,a1,s5
    800004ac:	0015059b          	addiw	a1,a0,1
    800004b0:	00b42223          	sw	a1,4(s0)
    800004b4:	00a7a023          	sw	a0,0(a5)
    800004b8:	00442583          	lw	a1,4(s0)
    800004bc:	00459793          	slli	a5,a1,0x4
    800004c0:	00f707b3          	add	a5,a4,a5
    800004c4:	0177a023          	sw	s7,0(a5)
    800004c8:	0107a223          	sw	a6,4(a5)
    800004cc:	0007a423          	sw	zero,8(a5)
    800004d0:	0007a623          	sw	zero,12(a5)
    800004d4:	0006a783          	lw	a5,0(a3)
    800004d8:	00259593          	slli	a1,a1,0x2
    800004dc:	00b60633          	add	a2,a2,a1
    800004e0:	00f62023          	sw	a5,0(a2)
    800004e4:	00442783          	lw	a5,4(s0)
    800004e8:	0017871b          	addiw	a4,a5,1
    800004ec:	00e42223          	sw	a4,4(s0)
    800004f0:	00f6a023          	sw	a5,0(a3)
    800004f4:	eb1d40e3          	blt	s10,a7,80000394 <bench_dinic_prepare+0x224>
    800004f8:	06813083          	ld	ra,104(sp)
    800004fc:	06013403          	ld	s0,96(sp)
    80000500:	05813483          	ld	s1,88(sp)
    80000504:	05013903          	ld	s2,80(sp)
    80000508:	04813983          	ld	s3,72(sp)
    8000050c:	04013a03          	ld	s4,64(sp)
    80000510:	03813a83          	ld	s5,56(sp)
    80000514:	03013b03          	ld	s6,48(sp)
    80000518:	02813b83          	ld	s7,40(sp)
    8000051c:	02013c03          	ld	s8,32(sp)
    80000520:	01813c83          	ld	s9,24(sp)
    80000524:	01013d03          	ld	s10,16(sp)
    80000528:	00813d83          	ld	s11,8(sp)
    8000052c:	07010113          	addi	sp,sp,112
    80000530:	00008067          	ret

0000000080000534 <bench_dinic_run>:
    80000534:	f0010113          	addi	sp,sp,-256
    80000538:	0e813823          	sd	s0,240(sp)
    8000053c:	00002797          	auipc	a5,0x2
    80000540:	7c47a783          	lw	a5,1988(a5) # 80002d00 <_ZL1N>
    80000544:	00002417          	auipc	s0,0x2
    80000548:	7b443403          	ld	s0,1972(s0) # 80002cf8 <_ZL1G>
    8000054c:	0017969b          	slliw	a3,a5,0x1
    80000550:	0ba13023          	sd	s10,160(sp)
    80000554:	04043583          	ld	a1,64(s0)
    80000558:	03843883          	ld	a7,56(s0)
    8000055c:	02843d03          	ld	s10,40(s0)
    80000560:	01843503          	ld	a0,24(s0)
    80000564:	00042603          	lw	a2,0(s0)
    80000568:	09b13c23          	sd	s11,152(sp)
    8000056c:	0e113c23          	sd	ra,248(sp)
    80000570:	0e913423          	sd	s1,232(sp)
    80000574:	0f213023          	sd	s2,224(sp)
    80000578:	0d313c23          	sd	s3,216(sp)
    8000057c:	0d413823          	sd	s4,208(sp)
    80000580:	0d513423          	sd	s5,200(sp)
    80000584:	0d613023          	sd	s6,192(sp)
    80000588:	0b713c23          	sd	s7,184(sp)
    8000058c:	0b813823          	sd	s8,176(sp)
    80000590:	0b913423          	sd	s9,168(sp)
    80000594:	0016871b          	addiw	a4,a3,1
    80000598:	00269793          	slli	a5,a3,0x2
    8000059c:	02d13023          	sd	a3,32(sp)
    800005a0:	00d42423          	sw	a3,8(s0)
    800005a4:	00e42623          	sw	a4,12(s0)
    800005a8:	02f13c23          	sd	a5,56(sp)
    800005ac:	00013c23          	sd	zero,24(sp)
    800005b0:	fff00d93          	li	s11,-1
    800005b4:	00058793          	mv	a5,a1
    800005b8:	00c58733          	add	a4,a1,a2
    800005bc:	00c05863          	blez	a2,800005cc <bench_dinic_run+0x98>
    800005c0:	00078023          	sb	zero,0(a5)
    800005c4:	00178793          	addi	a5,a5,1
    800005c8:	fef71ce3          	bne	a4,a5,800005c0 <bench_dinic_run+0x8c>
    800005cc:	00d8a023          	sw	a3,0(a7)
    800005d0:	00842783          	lw	a5,8(s0)
    800005d4:	00100713          	li	a4,1
    800005d8:	00088e93          	mv	t4,a7
    800005dc:	00279793          	slli	a5,a5,0x2
    800005e0:	00fd07b3          	add	a5,s10,a5
    800005e4:	0007a023          	sw	zero,0(a5)
    800005e8:	00842783          	lw	a5,8(s0)
    800005ec:	00100f13          	li	t5,1
    800005f0:	00000e13          	li	t3,0
    800005f4:	00f587b3          	add	a5,a1,a5
    800005f8:	00e78023          	sb	a4,0(a5)
    800005fc:	000ea703          	lw	a4,0(t4)
    80000600:	001e0e1b          	addiw	t3,t3,1
    80000604:	00271713          	slli	a4,a4,0x2
    80000608:	00e507b3          	add	a5,a0,a4
    8000060c:	0007a783          	lw	a5,0(a5)
    80000610:	07b78a63          	beq	a5,s11,80000684 <bench_dinic_run+0x150>
    80000614:	01043283          	ld	t0,16(s0)
    80000618:	02043f83          	ld	t6,32(s0)
    8000061c:	00ed06b3          	add	a3,s10,a4
    80000620:	00479713          	slli	a4,a5,0x4
    80000624:	00e28733          	add	a4,t0,a4
    80000628:	00472603          	lw	a2,4(a4)
    8000062c:	00279793          	slli	a5,a5,0x2
    80000630:	00ff87b3          	add	a5,t6,a5
    80000634:	00c58833          	add	a6,a1,a2
    80000638:	00084303          	lbu	t1,0(a6) # 1000000 <_start-0x7f000000>
    8000063c:	04031063          	bnez	t1,8000067c <bench_dinic_run+0x148>
    80000640:	00872483          	lw	s1,8(a4)
    80000644:	00c72383          	lw	t2,12(a4)
    80000648:	00261613          	slli	a2,a2,0x2
    8000064c:	002f1313          	slli	t1,t5,0x2
    80000650:	00cd0633          	add	a2,s10,a2
    80000654:	00688333          	add	t1,a7,t1
    80000658:	0293d263          	bge	t2,s1,8000067c <bench_dinic_run+0x148>
    8000065c:	0006a383          	lw	t2,0(a3)
    80000660:	00100493          	li	s1,1
    80000664:	00980023          	sb	s1,0(a6)
    80000668:	0013881b          	addiw	a6,t2,1
    8000066c:	01062023          	sw	a6,0(a2)
    80000670:	00472703          	lw	a4,4(a4)
    80000674:	001f0f1b          	addiw	t5,t5,1
    80000678:	00e32023          	sw	a4,0(t1)
    8000067c:	0007a783          	lw	a5,0(a5)
    80000680:	fbb790e3          	bne	a5,s11,80000620 <bench_dinic_run+0xec>
    80000684:	004e8e93          	addi	t4,t4,4
    80000688:	f7ee1ae3          	bne	t3,t5,800005fc <bench_dinic_run+0xc8>
    8000068c:	00c42303          	lw	t1,12(s0)
    80000690:	006587b3          	add	a5,a1,t1
    80000694:	0007c783          	lbu	a5,0(a5)
    80000698:	48078e63          	beqz	a5,80000b34 <bench_dinic_run+0x600>
    8000069c:	00042603          	lw	a2,0(s0)
    800006a0:	02c05863          	blez	a2,800006d0 <bench_dinic_run+0x19c>
    800006a4:	03043683          	ld	a3,48(s0)
    800006a8:	00050713          	mv	a4,a0
    800006ac:	00000793          	li	a5,0
    800006b0:	00072603          	lw	a2,0(a4)
    800006b4:	0017879b          	addiw	a5,a5,1
    800006b8:	00470713          	addi	a4,a4,4
    800006bc:	00c6a023          	sw	a2,0(a3)
    800006c0:	00042603          	lw	a2,0(s0)
    800006c4:	00468693          	addi	a3,a3,4
    800006c8:	fec7c4e3          	blt	a5,a2,800006b0 <bench_dinic_run+0x17c>
    800006cc:	00c42303          	lw	t1,12(s0)
    800006d0:	02013783          	ld	a5,32(sp)
    800006d4:	42678a63          	beq	a5,t1,80000b08 <bench_dinic_run+0x5d4>
    800006d8:	03043783          	ld	a5,48(s0)
    800006dc:	03813703          	ld	a4,56(sp)
    800006e0:	00f13823          	sd	a5,16(sp)
    800006e4:	00e787b3          	add	a5,a5,a4
    800006e8:	0007a903          	lw	s2,0(a5)
    800006ec:	2bb90463          	beq	s2,s11,80000994 <bench_dinic_run+0x460>
    800006f0:	003f4f37          	lui	t5,0x3f4
    800006f4:	00ed0e33          	add	t3,s10,a4
    800006f8:	00013423          	sd	zero,8(sp)
    800006fc:	f3ff0f13          	addi	t5,t5,-193 # 3f3f3f <_start-0x7fc0c0c1>
    80000700:	0180006f          	j	80000718 <bench_dinic_run+0x1e4>
    80000704:	02043783          	ld	a5,32(s0)
    80000708:	00291913          	slli	s2,s2,0x2
    8000070c:	012787b3          	add	a5,a5,s2
    80000710:	0007a903          	lw	s2,0(a5)
    80000714:	25b90e63          	beq	s2,s11,80000970 <bench_dinic_run+0x43c>
    80000718:	01043a03          	ld	s4,16(s0)
    8000071c:	00491493          	slli	s1,s2,0x4
    80000720:	000e2703          	lw	a4,0(t3)
    80000724:	009a04b3          	add	s1,s4,s1
    80000728:	0044a583          	lw	a1,4(s1)
    8000072c:	0017071b          	addiw	a4,a4,1
    80000730:	00259613          	slli	a2,a1,0x2
    80000734:	00cd0cb3          	add	s9,s10,a2
    80000738:	000ca783          	lw	a5,0(s9)
    8000073c:	fcf714e3          	bne	a4,a5,80000704 <bench_dinic_run+0x1d0>
    80000740:	0084a683          	lw	a3,8(s1)
    80000744:	00c4a703          	lw	a4,12(s1)
    80000748:	40e6873b          	subw	a4,a3,a4
    8000074c:	00070693          	mv	a3,a4
    80000750:	00ef5463          	bge	t5,a4,80000758 <bench_dinic_run+0x224>
    80000754:	000f069b          	sext.w	a3,t5
    80000758:	3a658463          	beq	a1,t1,80000b00 <bench_dinic_run+0x5cc>
    8000075c:	fa0684e3          	beqz	a3,80000704 <bench_dinic_run+0x1d0>
    80000760:	01013703          	ld	a4,16(sp)
    80000764:	00c70633          	add	a2,a4,a2
    80000768:	00062983          	lw	s3,0(a2)
    8000076c:	f9b98ce3          	beq	s3,s11,80000704 <bench_dinic_run+0x1d0>
    80000770:	02913423          	sd	s1,40(sp)
    80000774:	03213823          	sd	s2,48(sp)
    80000778:	00000f93          	li	t6,0
    8000077c:	00068493          	mv	s1,a3
    80000780:	00030913          	mv	s2,t1
    80000784:	01c0006f          	j	800007a0 <bench_dinic_run+0x26c>
    80000788:	02043783          	ld	a5,32(s0)
    8000078c:	00299993          	slli	s3,s3,0x2
    80000790:	013787b3          	add	a5,a5,s3
    80000794:	0007a983          	lw	s3,0(a5)
    80000798:	21b98263          	beq	s3,s11,8000099c <bench_dinic_run+0x468>
    8000079c:	000ca783          	lw	a5,0(s9)
    800007a0:	00499b13          	slli	s6,s3,0x4
    800007a4:	016a0b33          	add	s6,s4,s6
    800007a8:	004b2583          	lw	a1,4(s6)
    800007ac:	0017871b          	addiw	a4,a5,1
    800007b0:	00259613          	slli	a2,a1,0x2
    800007b4:	00cd08b3          	add	a7,s10,a2
    800007b8:	0008a783          	lw	a5,0(a7)
    800007bc:	fcf716e3          	bne	a4,a5,80000788 <bench_dinic_run+0x254>
    800007c0:	008b2703          	lw	a4,8(s6)
    800007c4:	00cb2503          	lw	a0,12(s6)
    800007c8:	40a7053b          	subw	a0,a4,a0
    800007cc:	00050713          	mv	a4,a0
    800007d0:	00a4d463          	bge	s1,a0,800007d8 <bench_dinic_run+0x2a4>
    800007d4:	0004871b          	sext.w	a4,s1
    800007d8:	35258663          	beq	a1,s2,80000b24 <bench_dinic_run+0x5f0>
    800007dc:	fa0706e3          	beqz	a4,80000788 <bench_dinic_run+0x254>
    800007e0:	01013683          	ld	a3,16(sp)
    800007e4:	00c68633          	add	a2,a3,a2
    800007e8:	00062a83          	lw	s5,0(a2)
    800007ec:	f9ba8ee3          	beq	s5,s11,80000788 <bench_dinic_run+0x254>
    800007f0:	00000313          	li	t1,0
    800007f4:	05613823          	sd	s6,80(sp)
    800007f8:	04913c23          	sd	s1,88(sp)
    800007fc:	07313023          	sd	s3,96(sp)
    80000800:	07c13823          	sd	t3,112(sp)
    80000804:	05e13023          	sd	t5,64(sp)
    80000808:	00040e13          	mv	t3,s0
    8000080c:	05913423          	sd	s9,72(sp)
    80000810:	000a0413          	mv	s0,s4
    80000814:	00088493          	mv	s1,a7
    80000818:	00090a13          	mv	s4,s2
    8000081c:	07f13423          	sd	t6,104(sp)
    80000820:	00030993          	mv	s3,t1
    80000824:	00070913          	mv	s2,a4
    80000828:	000d0b13          	mv	s6,s10
    8000082c:	01c0006f          	j	80000848 <bench_dinic_run+0x314>
    80000830:	020e3783          	ld	a5,32(t3)
    80000834:	002a9a93          	slli	s5,s5,0x2
    80000838:	015787b3          	add	a5,a5,s5
    8000083c:	0007aa83          	lw	s5,0(a5)
    80000840:	1dba8663          	beq	s5,s11,80000a0c <bench_dinic_run+0x4d8>
    80000844:	0004a783          	lw	a5,0(s1)
    80000848:	004a9c13          	slli	s8,s5,0x4
    8000084c:	01840c33          	add	s8,s0,s8
    80000850:	004c2503          	lw	a0,4(s8)
    80000854:	0017879b          	addiw	a5,a5,1
    80000858:	00251593          	slli	a1,a0,0x2
    8000085c:	00bb0fb3          	add	t6,s6,a1
    80000860:	000fa603          	lw	a2,0(t6)
    80000864:	fcc796e3          	bne	a5,a2,80000830 <bench_dinic_run+0x2fc>
    80000868:	008c2283          	lw	t0,8(s8)
    8000086c:	00cc2783          	lw	a5,12(s8)
    80000870:	40f287bb          	subw	a5,t0,a5
    80000874:	00078293          	mv	t0,a5
    80000878:	00f95463          	bge	s2,a5,80000880 <bench_dinic_run+0x34c>
    8000087c:	00090293          	mv	t0,s2
    80000880:	00028d1b          	sext.w	s10,t0
    80000884:	2b450463          	beq	a0,s4,80000b2c <bench_dinic_run+0x5f8>
    80000888:	fa0d04e3          	beqz	s10,80000830 <bench_dinic_run+0x2fc>
    8000088c:	01013783          	ld	a5,16(sp)
    80000890:	00b785b3          	add	a1,a5,a1
    80000894:	0005ab83          	lw	s7,0(a1)
    80000898:	f9bb8ce3          	beq	s7,s11,80000830 <bench_dinic_run+0x2fc>
    8000089c:	00000c93          	li	s9,0
    800008a0:	06913c23          	sd	s1,120(sp)
    800008a4:	09213023          	sd	s2,128(sp)
    800008a8:	09313423          	sd	s3,136(sp)
    800008ac:	000d0493          	mv	s1,s10
    800008b0:	000c8993          	mv	s3,s9
    800008b4:	000f8913          	mv	s2,t6
    800008b8:	000b0c93          	mv	s9,s6
    800008bc:	00060713          	mv	a4,a2
    800008c0:	000e0b13          	mv	s6,t3
    800008c4:	01c0006f          	j	800008e0 <bench_dinic_run+0x3ac>
    800008c8:	020b3783          	ld	a5,32(s6)
    800008cc:	002b9b93          	slli	s7,s7,0x2
    800008d0:	017787b3          	add	a5,a5,s7
    800008d4:	0007ab83          	lw	s7,0(a5)
    800008d8:	1bbb8463          	beq	s7,s11,80000a80 <bench_dinic_run+0x54c>
    800008dc:	00092703          	lw	a4,0(s2)
    800008e0:	004b9793          	slli	a5,s7,0x4
    800008e4:	00f40d33          	add	s10,s0,a5
    800008e8:	004d2583          	lw	a1,4(s10)
    800008ec:	0017071b          	addiw	a4,a4,1
    800008f0:	00259793          	slli	a5,a1,0x2
    800008f4:	00fc87b3          	add	a5,s9,a5
    800008f8:	0007a783          	lw	a5,0(a5)
    800008fc:	fcf716e3          	bne	a4,a5,800008c8 <bench_dinic_run+0x394>
    80000900:	008d2603          	lw	a2,8(s10)
    80000904:	00cd2783          	lw	a5,12(s10)
    80000908:	000b0513          	mv	a0,s6
    8000090c:	40f607bb          	subw	a5,a2,a5
    80000910:	00078613          	mv	a2,a5
    80000914:	00f4d463          	bge	s1,a5,8000091c <bench_dinic_run+0x3e8>
    80000918:	0004861b          	sext.w	a2,s1
    8000091c:	5e0000ef          	jal	ra,80000efc <_ZN5Dinic3DFSEii>
    80000920:	001bc793          	xori	a5,s7,1
    80000924:	00479793          	slli	a5,a5,0x4
    80000928:	00f407b3          	add	a5,s0,a5
    8000092c:	f8a05ee3          	blez	a0,800008c8 <bench_dinic_run+0x394>
    80000930:	00cd2703          	lw	a4,12(s10)
    80000934:	40a484bb          	subw	s1,s1,a0
    80000938:	013509bb          	addw	s3,a0,s3
    8000093c:	00a7073b          	addw	a4,a4,a0
    80000940:	00ed2623          	sw	a4,12(s10)
    80000944:	00c7a703          	lw	a4,12(a5)
    80000948:	40a7073b          	subw	a4,a4,a0
    8000094c:	00e7a623          	sw	a4,12(a5)
    80000950:	f6049ce3          	bnez	s1,800008c8 <bench_dinic_run+0x394>
    80000954:	000b0e13          	mv	t3,s6
    80000958:	07813483          	ld	s1,120(sp)
    8000095c:	000c8b13          	mv	s6,s9
    80000960:	08013903          	ld	s2,128(sp)
    80000964:	00098c93          	mv	s9,s3
    80000968:	08813983          	ld	s3,136(sp)
    8000096c:	1300006f          	j	80000a9c <bench_dinic_run+0x568>
    80000970:	01813783          	ld	a5,24(sp)
    80000974:	00813703          	ld	a4,8(sp)
    80000978:	03843883          	ld	a7,56(s0)
    8000097c:	02843d03          	ld	s10,40(s0)
    80000980:	04043583          	ld	a1,64(s0)
    80000984:	01843503          	ld	a0,24(s0)
    80000988:	00042603          	lw	a2,0(s0)
    8000098c:	00e787bb          	addw	a5,a5,a4
    80000990:	00f13c23          	sd	a5,24(sp)
    80000994:	00842683          	lw	a3,8(s0)
    80000998:	c1dff06f          	j	800005b4 <bench_dinic_run+0x80>
    8000099c:	00090313          	mv	t1,s2
    800009a0:	02813483          	ld	s1,40(sp)
    800009a4:	03013903          	ld	s2,48(sp)
    800009a8:	d5f05ee3          	blez	t6,80000704 <bench_dinic_run+0x1d0>
    800009ac:	00c4a703          	lw	a4,12(s1)
    800009b0:	00194793          	xori	a5,s2,1
    800009b4:	00479793          	slli	a5,a5,0x4
    800009b8:	01f7073b          	addw	a4,a4,t6
    800009bc:	00e4a623          	sw	a4,12(s1)
    800009c0:	00fa0a33          	add	s4,s4,a5
    800009c4:	00ca2783          	lw	a5,12(s4)
    800009c8:	00813703          	ld	a4,8(sp)
    800009cc:	41ff0f3b          	subw	t5,t5,t6
    800009d0:	41f787bb          	subw	a5,a5,t6
    800009d4:	01f7073b          	addw	a4,a4,t6
    800009d8:	00e13423          	sd	a4,8(sp)
    800009dc:	00fa2623          	sw	a5,12(s4)
    800009e0:	d20f12e3          	bnez	t5,80000704 <bench_dinic_run+0x1d0>
    800009e4:	01813783          	ld	a5,24(sp)
    800009e8:	03843883          	ld	a7,56(s0)
    800009ec:	02843d03          	ld	s10,40(s0)
    800009f0:	00e787bb          	addw	a5,a5,a4
    800009f4:	04043583          	ld	a1,64(s0)
    800009f8:	01843503          	ld	a0,24(s0)
    800009fc:	00042603          	lw	a2,0(s0)
    80000a00:	00842683          	lw	a3,8(s0)
    80000a04:	00f13c23          	sd	a5,24(sp)
    80000a08:	badff06f          	j	800005b4 <bench_dinic_run+0x80>
    80000a0c:	00098313          	mv	t1,s3
    80000a10:	000a0913          	mv	s2,s4
    80000a14:	000b0d13          	mv	s10,s6
    80000a18:	00040a13          	mv	s4,s0
    80000a1c:	04013f03          	ld	t5,64(sp)
    80000a20:	000e0413          	mv	s0,t3
    80000a24:	04813c83          	ld	s9,72(sp)
    80000a28:	05813483          	ld	s1,88(sp)
    80000a2c:	06813f83          	ld	t6,104(sp)
    80000a30:	06013983          	ld	s3,96(sp)
    80000a34:	07013e03          	ld	t3,112(sp)
    80000a38:	05013b03          	ld	s6,80(sp)
    80000a3c:	d46056e3          	blez	t1,80000788 <bench_dinic_run+0x254>
    80000a40:	00cb2703          	lw	a4,12(s6)
    80000a44:	0019c793          	xori	a5,s3,1
    80000a48:	00479793          	slli	a5,a5,0x4
    80000a4c:	0067073b          	addw	a4,a4,t1
    80000a50:	00eb2623          	sw	a4,12(s6)
    80000a54:	00fa07b3          	add	a5,s4,a5
    80000a58:	00c7a703          	lw	a4,12(a5)
    80000a5c:	406484bb          	subw	s1,s1,t1
    80000a60:	006f8fbb          	addw	t6,t6,t1
    80000a64:	4067073b          	subw	a4,a4,t1
    80000a68:	00e7a623          	sw	a4,12(a5)
    80000a6c:	d0049ee3          	bnez	s1,80000788 <bench_dinic_run+0x254>
    80000a70:	00090313          	mv	t1,s2
    80000a74:	02813483          	ld	s1,40(sp)
    80000a78:	03013903          	ld	s2,48(sp)
    80000a7c:	f31ff06f          	j	800009ac <bench_dinic_run+0x478>
    80000a80:	000b0e13          	mv	t3,s6
    80000a84:	07813483          	ld	s1,120(sp)
    80000a88:	000c8b13          	mv	s6,s9
    80000a8c:	08013903          	ld	s2,128(sp)
    80000a90:	00098c93          	mv	s9,s3
    80000a94:	08813983          	ld	s3,136(sp)
    80000a98:	d9905ce3          	blez	s9,80000830 <bench_dinic_run+0x2fc>
    80000a9c:	00cc2603          	lw	a2,12(s8)
    80000aa0:	001ac793          	xori	a5,s5,1
    80000aa4:	00479793          	slli	a5,a5,0x4
    80000aa8:	0196063b          	addw	a2,a2,s9
    80000aac:	00cc2623          	sw	a2,12(s8)
    80000ab0:	00f407b3          	add	a5,s0,a5
    80000ab4:	00c7a603          	lw	a2,12(a5)
    80000ab8:	4199093b          	subw	s2,s2,s9
    80000abc:	019989bb          	addw	s3,s3,s9
    80000ac0:	4196063b          	subw	a2,a2,s9
    80000ac4:	00c7a623          	sw	a2,12(a5)
    80000ac8:	d60914e3          	bnez	s2,80000830 <bench_dinic_run+0x2fc>
    80000acc:	00098313          	mv	t1,s3
    80000ad0:	000a0913          	mv	s2,s4
    80000ad4:	000b0d13          	mv	s10,s6
    80000ad8:	00040a13          	mv	s4,s0
    80000adc:	04013f03          	ld	t5,64(sp)
    80000ae0:	000e0413          	mv	s0,t3
    80000ae4:	04813c83          	ld	s9,72(sp)
    80000ae8:	05813483          	ld	s1,88(sp)
    80000aec:	06813f83          	ld	t6,104(sp)
    80000af0:	06013983          	ld	s3,96(sp)
    80000af4:	07013e03          	ld	t3,112(sp)
    80000af8:	05013b03          	ld	s6,80(sp)
    80000afc:	f45ff06f          	j	80000a40 <bench_dinic_run+0x50c>
    80000b00:	00068f93          	mv	t6,a3
    80000b04:	ea5ff06f          	j	800009a8 <bench_dinic_run+0x474>
    80000b08:	01813703          	ld	a4,24(sp)
    80000b0c:	003f47b7          	lui	a5,0x3f4
    80000b10:	f3f7879b          	addiw	a5,a5,-193
    80000b14:	00e787bb          	addw	a5,a5,a4
    80000b18:	00842683          	lw	a3,8(s0)
    80000b1c:	00f13c23          	sd	a5,24(sp)
    80000b20:	a95ff06f          	j	800005b4 <bench_dinic_run+0x80>
    80000b24:	00070313          	mv	t1,a4
    80000b28:	f15ff06f          	j	80000a3c <bench_dinic_run+0x508>
    80000b2c:	000d0c93          	mv	s9,s10
    80000b30:	f69ff06f          	j	80000a98 <bench_dinic_run+0x564>
    80000b34:	01813703          	ld	a4,24(sp)
    80000b38:	0f813083          	ld	ra,248(sp)
    80000b3c:	0f013403          	ld	s0,240(sp)
    80000b40:	00002797          	auipc	a5,0x2
    80000b44:	1ae7a823          	sw	a4,432(a5) # 80002cf0 <_ZL3ans>
    80000b48:	0e813483          	ld	s1,232(sp)
    80000b4c:	0e013903          	ld	s2,224(sp)
    80000b50:	0d813983          	ld	s3,216(sp)
    80000b54:	0d013a03          	ld	s4,208(sp)
    80000b58:	0c813a83          	ld	s5,200(sp)
    80000b5c:	0c013b03          	ld	s6,192(sp)
    80000b60:	0b813b83          	ld	s7,184(sp)
    80000b64:	0b013c03          	ld	s8,176(sp)
    80000b68:	0a813c83          	ld	s9,168(sp)
    80000b6c:	0a013d03          	ld	s10,160(sp)
    80000b70:	09813d83          	ld	s11,152(sp)
    80000b74:	10010113          	addi	sp,sp,256
    80000b78:	00008067          	ret

0000000080000b7c <bench_dinic_validate>:
    80000b7c:	00002797          	auipc	a5,0x2
    80000b80:	1647b783          	ld	a5,356(a5) # 80002ce0 <setting>
    80000b84:	0187a503          	lw	a0,24(a5)
    80000b88:	00002797          	auipc	a5,0x2
    80000b8c:	1687a783          	lw	a5,360(a5) # 80002cf0 <_ZL3ans>
    80000b90:	40f50533          	sub	a0,a0,a5
    80000b94:	00153513          	seqz	a0,a0
    80000b98:	00008067          	ret

Disassembly of section .text.startup:

0000000080000b9c <main>:
    80000b9c:	fc010113          	addi	sp,sp,-64
    80000ba0:	02113c23          	sd	ra,56(sp)
    80000ba4:	02813823          	sd	s0,48(sp)
    80000ba8:	02913423          	sd	s1,40(sp)
    80000bac:	03213023          	sd	s2,32(sp)
    80000bb0:	01313c23          	sd	s3,24(sp)
    80000bb4:	01413823          	sd	s4,16(sp)
    80000bb8:	01513423          	sd	s5,8(sp)
    80000bbc:	01613023          	sd	s6,0(sp)
    80000bc0:	14050863          	beqz	a0,80000d10 <main+0x174>
    80000bc4:	00002597          	auipc	a1,0x2
    80000bc8:	df458593          	addi	a1,a1,-524 # 800029b8 <printf_+0x110>
    80000bcc:	00050413          	mv	s0,a0
    80000bd0:	741000ef          	jal	ra,80001b10 <strcmp>
    80000bd4:	12050e63          	beqz	a0,80000d10 <main+0x174>
    80000bd8:	00002597          	auipc	a1,0x2
    80000bdc:	d6858593          	addi	a1,a1,-664 # 80002940 <printf_+0x98>
    80000be0:	00040513          	mv	a0,s0
    80000be4:	72d000ef          	jal	ra,80001b10 <strcmp>
    80000be8:	00050993          	mv	s3,a0
    80000bec:	00050e63          	beqz	a0,80000c08 <main+0x6c>
    80000bf0:	00002597          	auipc	a1,0x2
    80000bf4:	d5858593          	addi	a1,a1,-680 # 80002948 <printf_+0xa0>
    80000bf8:	00040513          	mv	a0,s0
    80000bfc:	715000ef          	jal	ra,80001b10 <strcmp>
    80000c00:	00100993          	li	s3,1
    80000c04:	2a051863          	bnez	a0,80000eb4 <main+0x318>
    80000c08:	511000ef          	jal	ra,80001918 <_ioe_init>
    80000c0c:	00040593          	mv	a1,s0
    80000c10:	00002517          	auipc	a0,0x2
    80000c14:	d7850513          	addi	a0,a0,-648 # 80002988 <printf_+0xe0>
    80000c18:	491010ef          	jal	ra,800028a8 <printf_>
    80000c1c:	745000ef          	jal	ra,80001b60 <uptime>
    80000c20:	00198693          	addi	a3,s3,1
    80000c24:	00002797          	auipc	a5,0x2
    80000c28:	01478793          	addi	a5,a5,20 # 80002c38 <benchmarks>
    80000c2c:	00002497          	auipc	s1,0x2
    80000c30:	09c48493          	addi	s1,s1,156 # 80002cc8 <_heap>
    80000c34:	0019871b          	addiw	a4,s3,1
    80000c38:	00569693          	slli	a3,a3,0x5
    80000c3c:	0084b603          	ld	a2,8(s1)
    80000c40:	0004b583          	ld	a1,0(s1)
    80000c44:	00571713          	slli	a4,a4,0x5
    80000c48:	00d786b3          	add	a3,a5,a3
    80000c4c:	00870713          	addi	a4,a4,8
    80000c50:	0106b683          	ld	a3,16(a3)
    80000c54:	00e78733          	add	a4,a5,a4
    80000c58:	00002417          	auipc	s0,0x2
    80000c5c:	09040413          	addi	s0,s0,144 # 80002ce8 <current>
    80000c60:	00002a97          	auipc	s5,0x2
    80000c64:	080a8a93          	addi	s5,s5,128 # 80002ce0 <setting>
    80000c68:	00eab023          	sd	a4,0(s5)
    80000c6c:	00f43023          	sd	a5,0(s0)
    80000c70:	40b60733          	sub	a4,a2,a1
    80000c74:	0005091b          	sext.w	s2,a0
    80000c78:	0207b603          	ld	a2,32(a5)
    80000c7c:	0187b583          	ld	a1,24(a5)
    80000c80:	00002517          	auipc	a0,0x2
    80000c84:	d4050513          	addi	a0,a0,-704 # 800029c0 <printf_+0x118>
    80000c88:	0ad77063          	bgeu	a4,a3,80000d28 <main+0x18c>
    80000c8c:	41d010ef          	jal	ra,800028a8 <printf_>
    80000c90:	00002597          	auipc	a1,0x2
    80000c94:	d4058593          	addi	a1,a1,-704 # 800029d0 <printf_+0x128>
    80000c98:	00002517          	auipc	a0,0x2
    80000c9c:	d5050513          	addi	a0,a0,-688 # 800029e8 <printf_+0x140>
    80000ca0:	409010ef          	jal	ra,800028a8 <printf_>
    80000ca4:	6bd000ef          	jal	ra,80001b60 <uptime>
    80000ca8:	00050493          	mv	s1,a0
    80000cac:	00002517          	auipc	a0,0x2
    80000cb0:	d4c50513          	addi	a0,a0,-692 # 800029f8 <printf_+0x150>
    80000cb4:	3f5010ef          	jal	ra,800028a8 <printf_>
    80000cb8:	00100413          	li	s0,1
    80000cbc:	0004849b          	sext.w	s1,s1
    80000cc0:	00000b13          	li	s6,0
    80000cc4:	00002597          	auipc	a1,0x2
    80000cc8:	c4458593          	addi	a1,a1,-956 # 80002908 <printf_+0x60>
    80000ccc:	00002517          	auipc	a0,0x2
    80000cd0:	da450513          	addi	a0,a0,-604 # 80002a70 <printf_+0x1c8>
    80000cd4:	3d5010ef          	jal	ra,800028a8 <printf_>
    80000cd8:	00200793          	li	a5,2
    80000cdc:	12f99663          	bne	s3,a5,80000e08 <main+0x26c>
    80000ce0:	000b059b          	sext.w	a1,s6
    80000ce4:	00002517          	auipc	a0,0x2
    80000ce8:	d9c50513          	addi	a0,a0,-612 # 80002a80 <printf_+0x1d8>
    80000cec:	3bd010ef          	jal	ra,800028a8 <printf_>
    80000cf0:	000185b7          	lui	a1,0x18
    80000cf4:	00002617          	auipc	a2,0x2
    80000cf8:	da460613          	addi	a2,a2,-604 # 80002a98 <printf_+0x1f0>
    80000cfc:	6a058593          	addi	a1,a1,1696 # 186a0 <_start-0x7ffe7960>
    80000d00:	00002517          	auipc	a0,0x2
    80000d04:	db050513          	addi	a0,a0,-592 # 80002ab0 <printf_+0x208>
    80000d08:	3a1010ef          	jal	ra,800028a8 <printf_>
    80000d0c:	1080006f          	j	80000e14 <main+0x278>
    80000d10:	00002517          	auipc	a0,0x2
    80000d14:	c0850513          	addi	a0,a0,-1016 # 80002918 <printf_+0x70>
    80000d18:	391010ef          	jal	ra,800028a8 <printf_>
    80000d1c:	00002417          	auipc	s0,0x2
    80000d20:	be440413          	addi	s0,s0,-1052 # 80002900 <printf_+0x58>
    80000d24:	eb5ff06f          	j	80000bd8 <main+0x3c>
    80000d28:	381010ef          	jal	ra,800028a8 <printf_>
    80000d2c:	00043703          	ld	a4,0(s0)
    80000d30:	0004b783          	ld	a5,0(s1)
    80000d34:	00073703          	ld	a4,0(a4)
    80000d38:	00778793          	addi	a5,a5,7
    80000d3c:	ff87f793          	andi	a5,a5,-8
    80000d40:	00002697          	auipc	a3,0x2
    80000d44:	f8f6bc23          	sd	a5,-104(a3) # 80002cd8 <hbrk>
    80000d48:	000700e7          	jalr	a4
    80000d4c:	615000ef          	jal	ra,80001b60 <uptime>
    80000d50:	00043783          	ld	a5,0(s0)
    80000d54:	0005049b          	sext.w	s1,a0
    80000d58:	0087b783          	ld	a5,8(a5)
    80000d5c:	000780e7          	jalr	a5
    80000d60:	601000ef          	jal	ra,80001b60 <uptime>
    80000d64:	00043783          	ld	a5,0(s0)
    80000d68:	00050a1b          	sext.w	s4,a0
    80000d6c:	0107b783          	ld	a5,16(a5)
    80000d70:	000780e7          	jalr	a5
    80000d74:	00050413          	mv	s0,a0
    80000d78:	0c050c63          	beqz	a0,80000e50 <main+0x2b4>
    80000d7c:	00147413          	andi	s0,s0,1
    80000d80:	00002517          	auipc	a0,0x2
    80000d84:	cb050513          	addi	a0,a0,-848 # 80002a30 <printf_+0x188>
    80000d88:	321010ef          	jal	ra,800028a8 <printf_>
    80000d8c:	0c040863          	beqz	s0,80000e5c <main+0x2c0>
    80000d90:	00002517          	auipc	a0,0x2
    80000d94:	ca850513          	addi	a0,a0,-856 # 80002a38 <printf_+0x190>
    80000d98:	311010ef          	jal	ra,800028a8 <printf_>
    80000d9c:	020a1793          	slli	a5,s4,0x20
    80000da0:	02049713          	slli	a4,s1,0x20
    80000da4:	0207d793          	srli	a5,a5,0x20
    80000da8:	02075713          	srli	a4,a4,0x20
    80000dac:	40e78b33          	sub	s6,a5,a4
    80000db0:	00e78c63          	beq	a5,a4,80000dc8 <main+0x22c>
    80000db4:	000ab783          	ld	a5,0(s5)
    80000db8:	0107b703          	ld	a4,16(a5)
    80000dbc:	06400793          	li	a5,100
    80000dc0:	02e787b3          	mul	a5,a5,a4
    80000dc4:	0367db33          	divu	s6,a5,s6
    80000dc8:	00002517          	auipc	a0,0x2
    80000dcc:	cc850513          	addi	a0,a0,-824 # 80002a90 <printf_+0x1e8>
    80000dd0:	2d9010ef          	jal	ra,800028a8 <printf_>
    80000dd4:	08099e63          	bnez	s3,80000e70 <main+0x2d4>
    80000dd8:	589000ef          	jal	ra,80001b60 <uptime>
    80000ddc:	00050493          	mv	s1,a0
    80000de0:	00002517          	auipc	a0,0x2
    80000de4:	c1850513          	addi	a0,a0,-1000 # 800029f8 <printf_+0x150>
    80000de8:	0004849b          	sext.w	s1,s1
    80000dec:	2bd010ef          	jal	ra,800028a8 <printf_>
    80000df0:	0e041a63          	bnez	s0,80000ee4 <main+0x348>
    80000df4:	00002597          	auipc	a1,0x2
    80000df8:	b1c58593          	addi	a1,a1,-1252 # 80002910 <printf_+0x68>
    80000dfc:	00002517          	auipc	a0,0x2
    80000e00:	c7450513          	addi	a0,a0,-908 # 80002a70 <printf_+0x1c8>
    80000e04:	2a5010ef          	jal	ra,800028a8 <printf_>
    80000e08:	00002517          	auipc	a0,0x2
    80000e0c:	c8850513          	addi	a0,a0,-888 # 80002a90 <printf_+0x1e8>
    80000e10:	299010ef          	jal	ra,800028a8 <printf_>
    80000e14:	412485bb          	subw	a1,s1,s2
    80000e18:	00002517          	auipc	a0,0x2
    80000e1c:	cc050513          	addi	a0,a0,-832 # 80002ad8 <printf_+0x230>
    80000e20:	289010ef          	jal	ra,800028a8 <printf_>
    80000e24:	03813083          	ld	ra,56(sp)
    80000e28:	00144513          	xori	a0,s0,1
    80000e2c:	03013403          	ld	s0,48(sp)
    80000e30:	02813483          	ld	s1,40(sp)
    80000e34:	02013903          	ld	s2,32(sp)
    80000e38:	01813983          	ld	s3,24(sp)
    80000e3c:	01013a03          	ld	s4,16(sp)
    80000e40:	00813a83          	ld	s5,8(sp)
    80000e44:	00013b03          	ld	s6,0(sp)
    80000e48:	04010113          	addi	sp,sp,64
    80000e4c:	00008067          	ret
    80000e50:	00002517          	auipc	a0,0x2
    80000e54:	ca050513          	addi	a0,a0,-864 # 80002af0 <printf_+0x248>
    80000e58:	251010ef          	jal	ra,800028a8 <printf_>
    80000e5c:	00002517          	auipc	a0,0x2
    80000e60:	bec50513          	addi	a0,a0,-1044 # 80002a48 <printf_+0x1a0>
    80000e64:	245010ef          	jal	ra,800028a8 <printf_>
    80000e68:	00000413          	li	s0,0
    80000e6c:	f31ff06f          	j	80000d9c <main+0x200>
    80000e70:	409a05bb          	subw	a1,s4,s1
    80000e74:	000b061b          	sext.w	a2,s6
    80000e78:	00002517          	auipc	a0,0x2
    80000e7c:	be050513          	addi	a0,a0,-1056 # 80002a58 <printf_+0x1b0>
    80000e80:	229010ef          	jal	ra,800028a8 <printf_>
    80000e84:	4dd000ef          	jal	ra,80001b60 <uptime>
    80000e88:	00050493          	mv	s1,a0
    80000e8c:	00002517          	auipc	a0,0x2
    80000e90:	b6c50513          	addi	a0,a0,-1172 # 800029f8 <printf_+0x150>
    80000e94:	215010ef          	jal	ra,800028a8 <printf_>
    80000e98:	0004849b          	sext.w	s1,s1
    80000e9c:	00002597          	auipc	a1,0x2
    80000ea0:	a7458593          	addi	a1,a1,-1420 # 80002910 <printf_+0x68>
    80000ea4:	e20404e3          	beqz	s0,80000ccc <main+0x130>
    80000ea8:	00002597          	auipc	a1,0x2
    80000eac:	a6058593          	addi	a1,a1,-1440 # 80002908 <printf_+0x60>
    80000eb0:	e1dff06f          	j	80000ccc <main+0x130>
    80000eb4:	00002597          	auipc	a1,0x2
    80000eb8:	a4c58593          	addi	a1,a1,-1460 # 80002900 <printf_+0x58>
    80000ebc:	00040513          	mv	a0,s0
    80000ec0:	451000ef          	jal	ra,80001b10 <strcmp>
    80000ec4:	00200993          	li	s3,2
    80000ec8:	d40500e3          	beqz	a0,80000c08 <main+0x6c>
    80000ecc:	00040593          	mv	a1,s0
    80000ed0:	00002517          	auipc	a0,0x2
    80000ed4:	a8050513          	addi	a0,a0,-1408 # 80002950 <printf_+0xa8>
    80000ed8:	1d1010ef          	jal	ra,800028a8 <printf_>
    80000edc:	00100513          	li	a0,1
    80000ee0:	1ad000ef          	jal	ra,8000188c <_halt>
    80000ee4:	00002597          	auipc	a1,0x2
    80000ee8:	a2458593          	addi	a1,a1,-1500 # 80002908 <printf_+0x60>
    80000eec:	00002517          	auipc	a0,0x2
    80000ef0:	b8450513          	addi	a0,a0,-1148 # 80002a70 <printf_+0x1c8>
    80000ef4:	1b5010ef          	jal	ra,800028a8 <printf_>
    80000ef8:	f11ff06f          	j	80000e08 <main+0x26c>

Disassembly of section .text._ZN5Dinic3DFSEii:

0000000080000efc <_ZN5Dinic3DFSEii>:
    80000efc:	00c52f83          	lw	t6,12(a0)
    80000f00:	e6010113          	addi	sp,sp,-416
    80000f04:	18113c23          	sd	ra,408(sp)
    80000f08:	18813823          	sd	s0,400(sp)
    80000f0c:	18913423          	sd	s1,392(sp)
    80000f10:	19213023          	sd	s2,384(sp)
    80000f14:	17313c23          	sd	s3,376(sp)
    80000f18:	17413823          	sd	s4,368(sp)
    80000f1c:	17513423          	sd	s5,360(sp)
    80000f20:	17613023          	sd	s6,352(sp)
    80000f24:	15713c23          	sd	s7,344(sp)
    80000f28:	15813823          	sd	s8,336(sp)
    80000f2c:	15913423          	sd	s9,328(sp)
    80000f30:	15a13023          	sd	s10,320(sp)
    80000f34:	13b13c23          	sd	s11,312(sp)
    80000f38:	02c13023          	sd	a2,32(sp)
    80000f3c:	56bf8c63          	beq	t6,a1,800014b4 <_ZN5Dinic3DFSEii+0x5b8>
    80000f40:	00013c23          	sd	zero,24(sp)
    80000f44:	56060c63          	beqz	a2,800014bc <_ZN5Dinic3DFSEii+0x5c0>
    80000f48:	03053703          	ld	a4,48(a0)
    80000f4c:	00259f13          	slli	t5,a1,0x2
    80000f50:	fff00793          	li	a5,-1
    80000f54:	04e13023          	sd	a4,64(sp)
    80000f58:	01e70733          	add	a4,a4,t5
    80000f5c:	00072283          	lw	t0,0(a4)
    80000f60:	54f28e63          	beq	t0,a5,800014bc <_ZN5Dinic3DFSEii+0x5c0>
    80000f64:	01e13023          	sd	t5,0(sp)
    80000f68:	fff00393          	li	t2,-1
    80000f6c:	01f13423          	sd	t6,8(sp)
    80000f70:	00028f13          	mv	t5,t0
    80000f74:	00050e93          	mv	t4,a0
    80000f78:	0180006f          	j	80000f90 <_ZN5Dinic3DFSEii+0x94>
    80000f7c:	020eb783          	ld	a5,32(t4)
    80000f80:	002f1713          	slli	a4,t5,0x2
    80000f84:	00e787b3          	add	a5,a5,a4
    80000f88:	0007af03          	lw	t5,0(a5)
    80000f8c:	527f0863          	beq	t5,t2,800014bc <_ZN5Dinic3DFSEii+0x5c0>
    80000f90:	010eb283          	ld	t0,16(t4)
    80000f94:	004f1793          	slli	a5,t5,0x4
    80000f98:	028ebf83          	ld	t6,40(t4)
    80000f9c:	00f28333          	add	t1,t0,a5
    80000fa0:	00432603          	lw	a2,4(t1)
    80000fa4:	00013783          	ld	a5,0(sp)
    80000fa8:	00261693          	slli	a3,a2,0x2
    80000fac:	00ff87b3          	add	a5,t6,a5
    80000fb0:	0007a703          	lw	a4,0(a5)
    80000fb4:	00df88b3          	add	a7,t6,a3
    80000fb8:	0008a783          	lw	a5,0(a7)
    80000fbc:	0017071b          	addiw	a4,a4,1
    80000fc0:	faf71ee3          	bne	a4,a5,80000f7c <_ZN5Dinic3DFSEii+0x80>
    80000fc4:	00832703          	lw	a4,8(t1)
    80000fc8:	00c32583          	lw	a1,12(t1)
    80000fcc:	02013503          	ld	a0,32(sp)
    80000fd0:	40b705bb          	subw	a1,a4,a1
    80000fd4:	00058713          	mv	a4,a1
    80000fd8:	00b55463          	bge	a0,a1,80000fe0 <_ZN5Dinic3DFSEii+0xe4>
    80000fdc:	0005071b          	sext.w	a4,a0
    80000fe0:	00813583          	ld	a1,8(sp)
    80000fe4:	02e13823          	sd	a4,48(sp)
    80000fe8:	64c58063          	beq	a1,a2,80001628 <_ZN5Dinic3DFSEii+0x72c>
    80000fec:	f80708e3          	beqz	a4,80000f7c <_ZN5Dinic3DFSEii+0x80>
    80000ff0:	04013703          	ld	a4,64(sp)
    80000ff4:	00d706b3          	add	a3,a4,a3
    80000ff8:	0006ae03          	lw	t3,0(a3)
    80000ffc:	f87e00e3          	beq	t3,t2,80000f7c <_ZN5Dinic3DFSEii+0x80>
    80001000:	000e8713          	mv	a4,t4
    80001004:	02013c23          	sd	zero,56(sp)
    80001008:	000e0e93          	mv	t4,t3
    8000100c:	01113823          	sd	a7,16(sp)
    80001010:	06613c23          	sd	t1,120(sp)
    80001014:	09e13023          	sd	t5,128(sp)
    80001018:	00070e13          	mv	t3,a4
    8000101c:	0200006f          	j	8000103c <_ZN5Dinic3DFSEii+0x140>
    80001020:	020e3783          	ld	a5,32(t3)
    80001024:	002e9713          	slli	a4,t4,0x2
    80001028:	00e787b3          	add	a5,a5,a4
    8000102c:	0007ae83          	lw	t4,0(a5)
    80001030:	4c7e8663          	beq	t4,t2,800014fc <_ZN5Dinic3DFSEii+0x600>
    80001034:	01013783          	ld	a5,16(sp)
    80001038:	0007a783          	lw	a5,0(a5)
    8000103c:	004e9713          	slli	a4,t4,0x4
    80001040:	00e28333          	add	t1,t0,a4
    80001044:	00432603          	lw	a2,4(t1)
    80001048:	0017879b          	addiw	a5,a5,1
    8000104c:	00261693          	slli	a3,a2,0x2
    80001050:	00df8f33          	add	t5,t6,a3
    80001054:	000f2703          	lw	a4,0(t5)
    80001058:	fce794e3          	bne	a5,a4,80001020 <_ZN5Dinic3DFSEii+0x124>
    8000105c:	00832783          	lw	a5,8(t1)
    80001060:	00c32583          	lw	a1,12(t1)
    80001064:	03013503          	ld	a0,48(sp)
    80001068:	40b785bb          	subw	a1,a5,a1
    8000106c:	00058793          	mv	a5,a1
    80001070:	00b55463          	bge	a0,a1,80001078 <_ZN5Dinic3DFSEii+0x17c>
    80001074:	0005079b          	sext.w	a5,a0
    80001078:	00813583          	ld	a1,8(sp)
    8000107c:	04f13423          	sd	a5,72(sp)
    80001080:	62c58263          	beq	a1,a2,800016a4 <_ZN5Dinic3DFSEii+0x7a8>
    80001084:	f8078ee3          	beqz	a5,80001020 <_ZN5Dinic3DFSEii+0x124>
    80001088:	04013783          	ld	a5,64(sp)
    8000108c:	00d786b3          	add	a3,a5,a3
    80001090:	0006a883          	lw	a7,0(a3)
    80001094:	f87886e3          	beq	a7,t2,80001020 <_ZN5Dinic3DFSEii+0x124>
    80001098:	09d13823          	sd	t4,144(sp)
    8000109c:	04013823          	sd	zero,80(sp)
    800010a0:	08613423          	sd	t1,136(sp)
    800010a4:	03e13423          	sd	t5,40(sp)
    800010a8:	00088e93          	mv	t4,a7
    800010ac:	0200006f          	j	800010cc <_ZN5Dinic3DFSEii+0x1d0>
    800010b0:	020e3783          	ld	a5,32(t3)
    800010b4:	002e9713          	slli	a4,t4,0x2
    800010b8:	00e787b3          	add	a5,a5,a4
    800010bc:	0007ae83          	lw	t4,0(a5)
    800010c0:	487e8c63          	beq	t4,t2,80001558 <_ZN5Dinic3DFSEii+0x65c>
    800010c4:	02813783          	ld	a5,40(sp)
    800010c8:	0007a703          	lw	a4,0(a5)
    800010cc:	004e9793          	slli	a5,t4,0x4
    800010d0:	00f28333          	add	t1,t0,a5
    800010d4:	00432603          	lw	a2,4(t1)
    800010d8:	0017071b          	addiw	a4,a4,1
    800010dc:	00261693          	slli	a3,a2,0x2
    800010e0:	00df88b3          	add	a7,t6,a3
    800010e4:	0008a783          	lw	a5,0(a7)
    800010e8:	fcf714e3          	bne	a4,a5,800010b0 <_ZN5Dinic3DFSEii+0x1b4>
    800010ec:	00832703          	lw	a4,8(t1)
    800010f0:	00c32583          	lw	a1,12(t1)
    800010f4:	04813503          	ld	a0,72(sp)
    800010f8:	40b705bb          	subw	a1,a4,a1
    800010fc:	00058713          	mv	a4,a1
    80001100:	00b55463          	bge	a0,a1,80001108 <_ZN5Dinic3DFSEii+0x20c>
    80001104:	0005071b          	sext.w	a4,a0
    80001108:	00813583          	ld	a1,8(sp)
    8000110c:	04e13c23          	sd	a4,88(sp)
    80001110:	60c58463          	beq	a1,a2,80001718 <_ZN5Dinic3DFSEii+0x81c>
    80001114:	f8070ee3          	beqz	a4,800010b0 <_ZN5Dinic3DFSEii+0x1b4>
    80001118:	04013703          	ld	a4,64(sp)
    8000111c:	00d706b3          	add	a3,a4,a3
    80001120:	0006af03          	lw	t5,0(a3)
    80001124:	f87f06e3          	beq	t5,t2,800010b0 <_ZN5Dinic3DFSEii+0x1b4>
    80001128:	000f0413          	mv	s0,t5
    8000112c:	06013023          	sd	zero,96(sp)
    80001130:	08613c23          	sd	t1,152(sp)
    80001134:	0bd13023          	sd	t4,160(sp)
    80001138:	00088f13          	mv	t5,a7
    8000113c:	000e0993          	mv	s3,t3
    80001140:	01c0006f          	j	8000115c <_ZN5Dinic3DFSEii+0x260>
    80001144:	0209b783          	ld	a5,32(s3)
    80001148:	00241413          	slli	s0,s0,0x2
    8000114c:	00878433          	add	s0,a5,s0
    80001150:	00042403          	lw	s0,0(s0)
    80001154:	46740863          	beq	s0,t2,800015c4 <_ZN5Dinic3DFSEii+0x6c8>
    80001158:	000f2783          	lw	a5,0(t5)
    8000115c:	00441713          	slli	a4,s0,0x4
    80001160:	00e28e33          	add	t3,t0,a4
    80001164:	004e2603          	lw	a2,4(t3)
    80001168:	0017879b          	addiw	a5,a5,1
    8000116c:	00261693          	slli	a3,a2,0x2
    80001170:	00df8eb3          	add	t4,t6,a3
    80001174:	000ea703          	lw	a4,0(t4)
    80001178:	fce796e3          	bne	a5,a4,80001144 <_ZN5Dinic3DFSEii+0x248>
    8000117c:	008e2783          	lw	a5,8(t3)
    80001180:	00ce2583          	lw	a1,12(t3)
    80001184:	05813503          	ld	a0,88(sp)
    80001188:	40b785bb          	subw	a1,a5,a1
    8000118c:	00058793          	mv	a5,a1
    80001190:	42b54663          	blt	a0,a1,800015bc <_ZN5Dinic3DFSEii+0x6c0>
    80001194:	00813583          	ld	a1,8(sp)
    80001198:	06f13423          	sd	a5,104(sp)
    8000119c:	5cc58a63          	beq	a1,a2,80001770 <_ZN5Dinic3DFSEii+0x874>
    800011a0:	fa0782e3          	beqz	a5,80001144 <_ZN5Dinic3DFSEii+0x248>
    800011a4:	04013783          	ld	a5,64(sp)
    800011a8:	00d786b3          	add	a3,a5,a3
    800011ac:	0006a303          	lw	t1,0(a3)
    800011b0:	f8730ae3          	beq	t1,t2,80001144 <_ZN5Dinic3DFSEii+0x248>
    800011b4:	00028a93          	mv	s5,t0
    800011b8:	0a813c23          	sd	s0,184(sp)
    800011bc:	06013823          	sd	zero,112(sp)
    800011c0:	000f8b93          	mv	s7,t6
    800011c4:	0be13423          	sd	t5,168(sp)
    800011c8:	0bc13823          	sd	t3,176(sp)
    800011cc:	000e8293          	mv	t0,t4
    800011d0:	00030413          	mv	s0,t1
    800011d4:	01c0006f          	j	800011f0 <_ZN5Dinic3DFSEii+0x2f4>
    800011d8:	0209b783          	ld	a5,32(s3)
    800011dc:	00241413          	slli	s0,s0,0x2
    800011e0:	00878433          	add	s0,a5,s0
    800011e4:	00042403          	lw	s0,0(s0)
    800011e8:	44740663          	beq	s0,t2,80001634 <_ZN5Dinic3DFSEii+0x738>
    800011ec:	0002a703          	lw	a4,0(t0)
    800011f0:	00441913          	slli	s2,s0,0x4
    800011f4:	012a8933          	add	s2,s5,s2
    800011f8:	00492603          	lw	a2,4(s2)
    800011fc:	0017071b          	addiw	a4,a4,1
    80001200:	00261693          	slli	a3,a2,0x2
    80001204:	00db8d33          	add	s10,s7,a3
    80001208:	000d2783          	lw	a5,0(s10)
    8000120c:	fcf716e3          	bne	a4,a5,800011d8 <_ZN5Dinic3DFSEii+0x2dc>
    80001210:	00892703          	lw	a4,8(s2)
    80001214:	00c92583          	lw	a1,12(s2)
    80001218:	06813503          	ld	a0,104(sp)
    8000121c:	40b705bb          	subw	a1,a4,a1
    80001220:	00058713          	mv	a4,a1
    80001224:	00b55463          	bge	a0,a1,8000122c <_ZN5Dinic3DFSEii+0x330>
    80001228:	00050713          	mv	a4,a0
    8000122c:	00070f1b          	sext.w	t5,a4
    80001230:	00813703          	ld	a4,8(sp)
    80001234:	5ac70c63          	beq	a4,a2,800017ec <_ZN5Dinic3DFSEii+0x8f0>
    80001238:	fa0f00e3          	beqz	t5,800011d8 <_ZN5Dinic3DFSEii+0x2dc>
    8000123c:	04013703          	ld	a4,64(sp)
    80001240:	00d706b3          	add	a3,a4,a3
    80001244:	0006a483          	lw	s1,0(a3)
    80001248:	f87488e3          	beq	s1,t2,800011d8 <_ZN5Dinic3DFSEii+0x2dc>
    8000124c:	00000f93          	li	t6,0
    80001250:	0c513023          	sd	t0,192(sp)
    80001254:	0d213423          	sd	s2,200(sp)
    80001258:	000d0e13          	mv	t3,s10
    8000125c:	0c813823          	sd	s0,208(sp)
    80001260:	01c0006f          	j	8000127c <_ZN5Dinic3DFSEii+0x380>
    80001264:	0209b783          	ld	a5,32(s3)
    80001268:	00249493          	slli	s1,s1,0x2
    8000126c:	009787b3          	add	a5,a5,s1
    80001270:	0007a483          	lw	s1,0(a5)
    80001274:	42748e63          	beq	s1,t2,800016b0 <_ZN5Dinic3DFSEii+0x7b4>
    80001278:	000e2783          	lw	a5,0(t3)
    8000127c:	00449913          	slli	s2,s1,0x4
    80001280:	012a8933          	add	s2,s5,s2
    80001284:	00492603          	lw	a2,4(s2)
    80001288:	0017871b          	addiw	a4,a5,1
    8000128c:	00261693          	slli	a3,a2,0x2
    80001290:	00db8db3          	add	s11,s7,a3
    80001294:	000da783          	lw	a5,0(s11)
    80001298:	fcf716e3          	bne	a4,a5,80001264 <_ZN5Dinic3DFSEii+0x368>
    8000129c:	00892703          	lw	a4,8(s2)
    800012a0:	00c92583          	lw	a1,12(s2)
    800012a4:	40b705bb          	subw	a1,a4,a1
    800012a8:	00058713          	mv	a4,a1
    800012ac:	00bf5463          	bge	t5,a1,800012b4 <_ZN5Dinic3DFSEii+0x3b8>
    800012b0:	000f071b          	sext.w	a4,t5
    800012b4:	00813583          	ld	a1,8(sp)
    800012b8:	5ac58c63          	beq	a1,a2,80001870 <_ZN5Dinic3DFSEii+0x974>
    800012bc:	fa0704e3          	beqz	a4,80001264 <_ZN5Dinic3DFSEii+0x368>
    800012c0:	04013603          	ld	a2,64(sp)
    800012c4:	00d606b3          	add	a3,a2,a3
    800012c8:	0006a403          	lw	s0,0(a3)
    800012cc:	f8740ce3          	beq	s0,t2,80001264 <_ZN5Dinic3DFSEii+0x368>
    800012d0:	00000313          	li	t1,0
    800012d4:	0c913c23          	sd	s1,216(sp)
    800012d8:	0f213023          	sd	s2,224(sp)
    800012dc:	000d8813          	mv	a6,s11
    800012e0:	01c0006f          	j	800012fc <_ZN5Dinic3DFSEii+0x400>
    800012e4:	0209b783          	ld	a5,32(s3)
    800012e8:	00241413          	slli	s0,s0,0x2
    800012ec:	008787b3          	add	a5,a5,s0
    800012f0:	0007a403          	lw	s0,0(a5)
    800012f4:	42740863          	beq	s0,t2,80001724 <_ZN5Dinic3DFSEii+0x828>
    800012f8:	00082783          	lw	a5,0(a6)
    800012fc:	00441b13          	slli	s6,s0,0x4
    80001300:	016a8b33          	add	s6,s5,s6
    80001304:	004b2583          	lw	a1,4(s6)
    80001308:	0017869b          	addiw	a3,a5,1
    8000130c:	00259613          	slli	a2,a1,0x2
    80001310:	00cb8db3          	add	s11,s7,a2
    80001314:	000da783          	lw	a5,0(s11)
    80001318:	fcf696e3          	bne	a3,a5,800012e4 <_ZN5Dinic3DFSEii+0x3e8>
    8000131c:	008b2903          	lw	s2,8(s6)
    80001320:	00cb2683          	lw	a3,12(s6)
    80001324:	40d906bb          	subw	a3,s2,a3
    80001328:	00068913          	mv	s2,a3
    8000132c:	00d75463          	bge	a4,a3,80001334 <_ZN5Dinic3DFSEii+0x438>
    80001330:	0007091b          	sext.w	s2,a4
    80001334:	00813683          	ld	a3,8(sp)
    80001338:	54b68063          	beq	a3,a1,80001878 <_ZN5Dinic3DFSEii+0x97c>
    8000133c:	fa0904e3          	beqz	s2,800012e4 <_ZN5Dinic3DFSEii+0x3e8>
    80001340:	04013683          	ld	a3,64(sp)
    80001344:	00c68633          	add	a2,a3,a2
    80001348:	00062a03          	lw	s4,0(a2)
    8000134c:	f87a0ce3          	beq	s4,t2,800012e4 <_ZN5Dinic3DFSEii+0x3e8>
    80001350:	00000693          	li	a3,0
    80001354:	0e813423          	sd	s0,232(sp)
    80001358:	11613823          	sd	s6,272(sp)
    8000135c:	12e13023          	sd	a4,288(sp)
    80001360:	00098b13          	mv	s6,s3
    80001364:	000a8713          	mv	a4,s5
    80001368:	000b8413          	mv	s0,s7
    8000136c:	0fc13823          	sd	t3,240(sp)
    80001370:	0f013c23          	sd	a6,248(sp)
    80001374:	11f13023          	sd	t6,256(sp)
    80001378:	11e13423          	sd	t5,264(sp)
    8000137c:	10613c23          	sd	t1,280(sp)
    80001380:	00068a93          	mv	s5,a3
    80001384:	000d8993          	mv	s3,s11
    80001388:	01c0006f          	j	800013a4 <_ZN5Dinic3DFSEii+0x4a8>
    8000138c:	020b3783          	ld	a5,32(s6)
    80001390:	002a1a13          	slli	s4,s4,0x2
    80001394:	014787b3          	add	a5,a5,s4
    80001398:	0007aa03          	lw	s4,0(a5)
    8000139c:	3e7a0063          	beq	s4,t2,8000177c <_ZN5Dinic3DFSEii+0x880>
    800013a0:	0009a783          	lw	a5,0(s3)
    800013a4:	004a1c13          	slli	s8,s4,0x4
    800013a8:	01870c33          	add	s8,a4,s8
    800013ac:	004c2503          	lw	a0,4(s8)
    800013b0:	0017879b          	addiw	a5,a5,1
    800013b4:	00251593          	slli	a1,a0,0x2
    800013b8:	00b40d33          	add	s10,s0,a1
    800013bc:	000d2603          	lw	a2,0(s10)
    800013c0:	fcc796e3          	bne	a5,a2,8000138c <_ZN5Dinic3DFSEii+0x490>
    800013c4:	008c2f83          	lw	t6,8(s8)
    800013c8:	00cc2783          	lw	a5,12(s8)
    800013cc:	40ff87bb          	subw	a5,t6,a5
    800013d0:	00078f93          	mv	t6,a5
    800013d4:	00f95463          	bge	s2,a5,800013dc <_ZN5Dinic3DFSEii+0x4e0>
    800013d8:	00090f93          	mv	t6,s2
    800013dc:	00813783          	ld	a5,8(sp)
    800013e0:	000f8c9b          	sext.w	s9,t6
    800013e4:	48a78e63          	beq	a5,a0,80001880 <_ZN5Dinic3DFSEii+0x984>
    800013e8:	fa0c82e3          	beqz	s9,8000138c <_ZN5Dinic3DFSEii+0x490>
    800013ec:	04013783          	ld	a5,64(sp)
    800013f0:	00b785b3          	add	a1,a5,a1
    800013f4:	0005a483          	lw	s1,0(a1)
    800013f8:	f8748ae3          	beq	s1,t2,8000138c <_ZN5Dinic3DFSEii+0x490>
    800013fc:	00000b93          	li	s7,0
    80001400:	13213423          	sd	s2,296(sp)
    80001404:	00060693          	mv	a3,a2
    80001408:	000b8913          	mv	s2,s7
    8000140c:	000c8b93          	mv	s7,s9
    80001410:	00070c93          	mv	s9,a4
    80001414:	01c0006f          	j	80001430 <_ZN5Dinic3DFSEii+0x534>
    80001418:	020b3783          	ld	a5,32(s6)
    8000141c:	00249493          	slli	s1,s1,0x2
    80001420:	009787b3          	add	a5,a5,s1
    80001424:	0007a483          	lw	s1,0(a5)
    80001428:	3c748663          	beq	s1,t2,800017f4 <_ZN5Dinic3DFSEii+0x8f8>
    8000142c:	000d2683          	lw	a3,0(s10)
    80001430:	00449d93          	slli	s11,s1,0x4
    80001434:	01bc8db3          	add	s11,s9,s11
    80001438:	004da583          	lw	a1,4(s11)
    8000143c:	0016869b          	addiw	a3,a3,1
    80001440:	00259793          	slli	a5,a1,0x2
    80001444:	00f407b3          	add	a5,s0,a5
    80001448:	0007a783          	lw	a5,0(a5)
    8000144c:	fcf696e3          	bne	a3,a5,80001418 <_ZN5Dinic3DFSEii+0x51c>
    80001450:	008da603          	lw	a2,8(s11)
    80001454:	00cda783          	lw	a5,12(s11)
    80001458:	000b0513          	mv	a0,s6
    8000145c:	40f607bb          	subw	a5,a2,a5
    80001460:	00078613          	mv	a2,a5
    80001464:	40fbc263          	blt	s7,a5,80001868 <_ZN5Dinic3DFSEii+0x96c>
    80001468:	a95ff0ef          	jal	ra,80000efc <_ZN5Dinic3DFSEii>
    8000146c:	0014c793          	xori	a5,s1,1
    80001470:	00479793          	slli	a5,a5,0x4
    80001474:	00fc87b3          	add	a5,s9,a5
    80001478:	fff00393          	li	t2,-1
    8000147c:	f8a05ee3          	blez	a0,80001418 <_ZN5Dinic3DFSEii+0x51c>
    80001480:	00cda683          	lw	a3,12(s11)
    80001484:	40ab8bbb          	subw	s7,s7,a0
    80001488:	0125093b          	addw	s2,a0,s2
    8000148c:	00a686bb          	addw	a3,a3,a0
    80001490:	00dda623          	sw	a3,12(s11)
    80001494:	00c7a683          	lw	a3,12(a5)
    80001498:	40a686bb          	subw	a3,a3,a0
    8000149c:	00d7a623          	sw	a3,12(a5)
    800014a0:	f60b9ce3          	bnez	s7,80001418 <_ZN5Dinic3DFSEii+0x51c>
    800014a4:	00090b93          	mv	s7,s2
    800014a8:	000c8713          	mv	a4,s9
    800014ac:	12813903          	ld	s2,296(sp)
    800014b0:	3540006f          	j	80001804 <_ZN5Dinic3DFSEii+0x908>
    800014b4:	02013783          	ld	a5,32(sp)
    800014b8:	00f13c23          	sd	a5,24(sp)
    800014bc:	19813083          	ld	ra,408(sp)
    800014c0:	19013403          	ld	s0,400(sp)
    800014c4:	01813503          	ld	a0,24(sp)
    800014c8:	18813483          	ld	s1,392(sp)
    800014cc:	18013903          	ld	s2,384(sp)
    800014d0:	17813983          	ld	s3,376(sp)
    800014d4:	17013a03          	ld	s4,368(sp)
    800014d8:	16813a83          	ld	s5,360(sp)
    800014dc:	16013b03          	ld	s6,352(sp)
    800014e0:	15813b83          	ld	s7,344(sp)
    800014e4:	15013c03          	ld	s8,336(sp)
    800014e8:	14813c83          	ld	s9,328(sp)
    800014ec:	14013d03          	ld	s10,320(sp)
    800014f0:	13813d83          	ld	s11,312(sp)
    800014f4:	1a010113          	addi	sp,sp,416
    800014f8:	00008067          	ret
    800014fc:	07813303          	ld	t1,120(sp)
    80001500:	08013f03          	ld	t5,128(sp)
    80001504:	000e0e93          	mv	t4,t3
    80001508:	03813783          	ld	a5,56(sp)
    8000150c:	a6f058e3          	blez	a5,80000f7c <_ZN5Dinic3DFSEii+0x80>
    80001510:	03813683          	ld	a3,56(sp)
    80001514:	00c32703          	lw	a4,12(t1)
    80001518:	001f4793          	xori	a5,t5,1
    8000151c:	00479793          	slli	a5,a5,0x4
    80001520:	00d7073b          	addw	a4,a4,a3
    80001524:	00e32623          	sw	a4,12(t1)
    80001528:	00f287b3          	add	a5,t0,a5
    8000152c:	00c7a703          	lw	a4,12(a5)
    80001530:	02013603          	ld	a2,32(sp)
    80001534:	01813583          	ld	a1,24(sp)
    80001538:	40d7073b          	subw	a4,a4,a3
    8000153c:	40d6063b          	subw	a2,a2,a3
    80001540:	00d585bb          	addw	a1,a1,a3
    80001544:	02c13023          	sd	a2,32(sp)
    80001548:	00b13c23          	sd	a1,24(sp)
    8000154c:	00e7a623          	sw	a4,12(a5)
    80001550:	a20616e3          	bnez	a2,80000f7c <_ZN5Dinic3DFSEii+0x80>
    80001554:	f69ff06f          	j	800014bc <_ZN5Dinic3DFSEii+0x5c0>
    80001558:	08813303          	ld	t1,136(sp)
    8000155c:	09013e83          	ld	t4,144(sp)
    80001560:	05013783          	ld	a5,80(sp)
    80001564:	aaf05ee3          	blez	a5,80001020 <_ZN5Dinic3DFSEii+0x124>
    80001568:	05013683          	ld	a3,80(sp)
    8000156c:	00c32703          	lw	a4,12(t1)
    80001570:	001ec793          	xori	a5,t4,1
    80001574:	00479793          	slli	a5,a5,0x4
    80001578:	00d7073b          	addw	a4,a4,a3
    8000157c:	00e32623          	sw	a4,12(t1)
    80001580:	00f287b3          	add	a5,t0,a5
    80001584:	00c7a703          	lw	a4,12(a5)
    80001588:	03013603          	ld	a2,48(sp)
    8000158c:	03813583          	ld	a1,56(sp)
    80001590:	40d7073b          	subw	a4,a4,a3
    80001594:	40d6063b          	subw	a2,a2,a3
    80001598:	00d585bb          	addw	a1,a1,a3
    8000159c:	02c13823          	sd	a2,48(sp)
    800015a0:	02b13c23          	sd	a1,56(sp)
    800015a4:	00e7a623          	sw	a4,12(a5)
    800015a8:	a6061ce3          	bnez	a2,80001020 <_ZN5Dinic3DFSEii+0x124>
    800015ac:	07813303          	ld	t1,120(sp)
    800015b0:	08013f03          	ld	t5,128(sp)
    800015b4:	000e0e93          	mv	t4,t3
    800015b8:	f59ff06f          	j	80001510 <_ZN5Dinic3DFSEii+0x614>
    800015bc:	0005079b          	sext.w	a5,a0
    800015c0:	bd5ff06f          	j	80001194 <_ZN5Dinic3DFSEii+0x298>
    800015c4:	09813303          	ld	t1,152(sp)
    800015c8:	0a013e83          	ld	t4,160(sp)
    800015cc:	00098e13          	mv	t3,s3
    800015d0:	06013783          	ld	a5,96(sp)
    800015d4:	acf05ee3          	blez	a5,800010b0 <_ZN5Dinic3DFSEii+0x1b4>
    800015d8:	06013683          	ld	a3,96(sp)
    800015dc:	00c32703          	lw	a4,12(t1)
    800015e0:	001ec793          	xori	a5,t4,1
    800015e4:	00479793          	slli	a5,a5,0x4
    800015e8:	00d7073b          	addw	a4,a4,a3
    800015ec:	00e32623          	sw	a4,12(t1)
    800015f0:	00f287b3          	add	a5,t0,a5
    800015f4:	00c7a703          	lw	a4,12(a5)
    800015f8:	04813603          	ld	a2,72(sp)
    800015fc:	05013583          	ld	a1,80(sp)
    80001600:	40d7073b          	subw	a4,a4,a3
    80001604:	40d6063b          	subw	a2,a2,a3
    80001608:	00d585bb          	addw	a1,a1,a3
    8000160c:	04c13423          	sd	a2,72(sp)
    80001610:	04b13823          	sd	a1,80(sp)
    80001614:	00e7a623          	sw	a4,12(a5)
    80001618:	a8061ce3          	bnez	a2,800010b0 <_ZN5Dinic3DFSEii+0x1b4>
    8000161c:	08813303          	ld	t1,136(sp)
    80001620:	09013e83          	ld	t4,144(sp)
    80001624:	f45ff06f          	j	80001568 <_ZN5Dinic3DFSEii+0x66c>
    80001628:	03013783          	ld	a5,48(sp)
    8000162c:	02f13c23          	sd	a5,56(sp)
    80001630:	ed9ff06f          	j	80001508 <_ZN5Dinic3DFSEii+0x60c>
    80001634:	0a813f03          	ld	t5,168(sp)
    80001638:	0b013e03          	ld	t3,176(sp)
    8000163c:	0b813403          	ld	s0,184(sp)
    80001640:	000a8293          	mv	t0,s5
    80001644:	000b8f93          	mv	t6,s7
    80001648:	07013783          	ld	a5,112(sp)
    8000164c:	aef05ce3          	blez	a5,80001144 <_ZN5Dinic3DFSEii+0x248>
    80001650:	07013683          	ld	a3,112(sp)
    80001654:	00ce2703          	lw	a4,12(t3)
    80001658:	00144793          	xori	a5,s0,1
    8000165c:	00479793          	slli	a5,a5,0x4
    80001660:	00d7073b          	addw	a4,a4,a3
    80001664:	00ee2623          	sw	a4,12(t3)
    80001668:	00f287b3          	add	a5,t0,a5
    8000166c:	00c7a703          	lw	a4,12(a5)
    80001670:	05813603          	ld	a2,88(sp)
    80001674:	06013583          	ld	a1,96(sp)
    80001678:	40d7073b          	subw	a4,a4,a3
    8000167c:	40d6063b          	subw	a2,a2,a3
    80001680:	00d585bb          	addw	a1,a1,a3
    80001684:	04c13c23          	sd	a2,88(sp)
    80001688:	06b13023          	sd	a1,96(sp)
    8000168c:	00e7a623          	sw	a4,12(a5)
    80001690:	aa061ae3          	bnez	a2,80001144 <_ZN5Dinic3DFSEii+0x248>
    80001694:	09813303          	ld	t1,152(sp)
    80001698:	0a013e83          	ld	t4,160(sp)
    8000169c:	00098e13          	mv	t3,s3
    800016a0:	f39ff06f          	j	800015d8 <_ZN5Dinic3DFSEii+0x6dc>
    800016a4:	04813783          	ld	a5,72(sp)
    800016a8:	04f13823          	sd	a5,80(sp)
    800016ac:	eb5ff06f          	j	80001560 <_ZN5Dinic3DFSEii+0x664>
    800016b0:	0c013283          	ld	t0,192(sp)
    800016b4:	0c813903          	ld	s2,200(sp)
    800016b8:	0d013403          	ld	s0,208(sp)
    800016bc:	b1f05ee3          	blez	t6,800011d8 <_ZN5Dinic3DFSEii+0x2dc>
    800016c0:	00c92703          	lw	a4,12(s2)
    800016c4:	00144793          	xori	a5,s0,1
    800016c8:	00479793          	slli	a5,a5,0x4
    800016cc:	01f7073b          	addw	a4,a4,t6
    800016d0:	00e92623          	sw	a4,12(s2)
    800016d4:	00fa87b3          	add	a5,s5,a5
    800016d8:	00c7a703          	lw	a4,12(a5)
    800016dc:	06813683          	ld	a3,104(sp)
    800016e0:	07013603          	ld	a2,112(sp)
    800016e4:	41f7073b          	subw	a4,a4,t6
    800016e8:	41f686bb          	subw	a3,a3,t6
    800016ec:	01f6063b          	addw	a2,a2,t6
    800016f0:	06d13423          	sd	a3,104(sp)
    800016f4:	06c13823          	sd	a2,112(sp)
    800016f8:	00e7a623          	sw	a4,12(a5)
    800016fc:	ac069ee3          	bnez	a3,800011d8 <_ZN5Dinic3DFSEii+0x2dc>
    80001700:	0a813f03          	ld	t5,168(sp)
    80001704:	0b013e03          	ld	t3,176(sp)
    80001708:	0b813403          	ld	s0,184(sp)
    8000170c:	000a8293          	mv	t0,s5
    80001710:	000b8f93          	mv	t6,s7
    80001714:	f3dff06f          	j	80001650 <_ZN5Dinic3DFSEii+0x754>
    80001718:	05813783          	ld	a5,88(sp)
    8000171c:	06f13023          	sd	a5,96(sp)
    80001720:	eb1ff06f          	j	800015d0 <_ZN5Dinic3DFSEii+0x6d4>
    80001724:	0d813483          	ld	s1,216(sp)
    80001728:	0e013903          	ld	s2,224(sp)
    8000172c:	b2605ce3          	blez	t1,80001264 <_ZN5Dinic3DFSEii+0x368>
    80001730:	00c92703          	lw	a4,12(s2)
    80001734:	0014c793          	xori	a5,s1,1
    80001738:	00479793          	slli	a5,a5,0x4
    8000173c:	0067073b          	addw	a4,a4,t1
    80001740:	00e92623          	sw	a4,12(s2)
    80001744:	00fa87b3          	add	a5,s5,a5
    80001748:	00c7a703          	lw	a4,12(a5)
    8000174c:	406f0f3b          	subw	t5,t5,t1
    80001750:	006f8fbb          	addw	t6,t6,t1
    80001754:	4067073b          	subw	a4,a4,t1
    80001758:	00e7a623          	sw	a4,12(a5)
    8000175c:	b00f14e3          	bnez	t5,80001264 <_ZN5Dinic3DFSEii+0x368>
    80001760:	0c013283          	ld	t0,192(sp)
    80001764:	0c813903          	ld	s2,200(sp)
    80001768:	0d013403          	ld	s0,208(sp)
    8000176c:	f55ff06f          	j	800016c0 <_ZN5Dinic3DFSEii+0x7c4>
    80001770:	06813783          	ld	a5,104(sp)
    80001774:	06f13823          	sd	a5,112(sp)
    80001778:	ed1ff06f          	j	80001648 <_ZN5Dinic3DFSEii+0x74c>
    8000177c:	00040b93          	mv	s7,s0
    80001780:	000a8693          	mv	a3,s5
    80001784:	000b0993          	mv	s3,s6
    80001788:	00070a93          	mv	s5,a4
    8000178c:	0e813403          	ld	s0,232(sp)
    80001790:	0f013e03          	ld	t3,240(sp)
    80001794:	0f813803          	ld	a6,248(sp)
    80001798:	10013f83          	ld	t6,256(sp)
    8000179c:	10813f03          	ld	t5,264(sp)
    800017a0:	11813303          	ld	t1,280(sp)
    800017a4:	12013703          	ld	a4,288(sp)
    800017a8:	11013b03          	ld	s6,272(sp)
    800017ac:	b2d05ce3          	blez	a3,800012e4 <_ZN5Dinic3DFSEii+0x3e8>
    800017b0:	00cb2603          	lw	a2,12(s6)
    800017b4:	00144793          	xori	a5,s0,1
    800017b8:	00479793          	slli	a5,a5,0x4
    800017bc:	00d6063b          	addw	a2,a2,a3
    800017c0:	00cb2623          	sw	a2,12(s6)
    800017c4:	00fa87b3          	add	a5,s5,a5
    800017c8:	00c7a603          	lw	a2,12(a5)
    800017cc:	40d7073b          	subw	a4,a4,a3
    800017d0:	00d3033b          	addw	t1,t1,a3
    800017d4:	40d606bb          	subw	a3,a2,a3
    800017d8:	00d7a623          	sw	a3,12(a5)
    800017dc:	b00714e3          	bnez	a4,800012e4 <_ZN5Dinic3DFSEii+0x3e8>
    800017e0:	0d813483          	ld	s1,216(sp)
    800017e4:	0e013903          	ld	s2,224(sp)
    800017e8:	f49ff06f          	j	80001730 <_ZN5Dinic3DFSEii+0x834>
    800017ec:	000f0f93          	mv	t6,t5
    800017f0:	ecdff06f          	j	800016bc <_ZN5Dinic3DFSEii+0x7c0>
    800017f4:	00090b93          	mv	s7,s2
    800017f8:	12813903          	ld	s2,296(sp)
    800017fc:	000c8713          	mv	a4,s9
    80001800:	b97056e3          	blez	s7,8000138c <_ZN5Dinic3DFSEii+0x490>
    80001804:	00cc2603          	lw	a2,12(s8)
    80001808:	001a4793          	xori	a5,s4,1
    8000180c:	00479793          	slli	a5,a5,0x4
    80001810:	0176063b          	addw	a2,a2,s7
    80001814:	00cc2623          	sw	a2,12(s8)
    80001818:	00f707b3          	add	a5,a4,a5
    8000181c:	00c7a603          	lw	a2,12(a5)
    80001820:	4179093b          	subw	s2,s2,s7
    80001824:	017a8abb          	addw	s5,s5,s7
    80001828:	4176063b          	subw	a2,a2,s7
    8000182c:	00c7a623          	sw	a2,12(a5)
    80001830:	b4091ee3          	bnez	s2,8000138c <_ZN5Dinic3DFSEii+0x490>
    80001834:	00040b93          	mv	s7,s0
    80001838:	000a8693          	mv	a3,s5
    8000183c:	000b0993          	mv	s3,s6
    80001840:	00070a93          	mv	s5,a4
    80001844:	0e813403          	ld	s0,232(sp)
    80001848:	0f013e03          	ld	t3,240(sp)
    8000184c:	0f813803          	ld	a6,248(sp)
    80001850:	10013f83          	ld	t6,256(sp)
    80001854:	10813f03          	ld	t5,264(sp)
    80001858:	11813303          	ld	t1,280(sp)
    8000185c:	12013703          	ld	a4,288(sp)
    80001860:	11013b03          	ld	s6,272(sp)
    80001864:	f4dff06f          	j	800017b0 <_ZN5Dinic3DFSEii+0x8b4>
    80001868:	000b861b          	sext.w	a2,s7
    8000186c:	bfdff06f          	j	80001468 <_ZN5Dinic3DFSEii+0x56c>
    80001870:	00070313          	mv	t1,a4
    80001874:	eb9ff06f          	j	8000172c <_ZN5Dinic3DFSEii+0x830>
    80001878:	00090693          	mv	a3,s2
    8000187c:	f31ff06f          	j	800017ac <_ZN5Dinic3DFSEii+0x8b0>
    80001880:	000c8b93          	mv	s7,s9
    80001884:	f7dff06f          	j	80001800 <_ZN5Dinic3DFSEii+0x904>

Disassembly of section .text._putc:

0000000080001888 <_putc>:
    80001888:	0540006f          	j	800018dc <__am_uartlite_putchar>

Disassembly of section .text._halt:

000000008000188c <_halt>:
    8000188c:	ff010113          	addi	sp,sp,-16
    80001890:	00113423          	sd	ra,8(sp)
    80001894:	00050593          	mv	a1,a0
    80001898:	00050513          	mv	a0,a0
    8000189c:	0005006b          	0x5006b
    800018a0:	00001517          	auipc	a0,0x1
    800018a4:	2f050513          	addi	a0,a0,752 # 80002b90 <printf_+0x2e8>
    800018a8:	000010ef          	jal	ra,800028a8 <printf_>
    800018ac:	0000006f          	j	800018ac <_halt+0x20>

Disassembly of section .text._trm_init:

00000000800018b0 <_trm_init>:
    800018b0:	ff010113          	addi	sp,sp,-16
    800018b4:	00113423          	sd	ra,8(sp)
    800018b8:	014000ef          	jal	ra,800018cc <__am_init_uartlite>
    800018bc:	00001517          	auipc	a0,0x1
    800018c0:	2e950513          	addi	a0,a0,745 # 80002ba5 <__am_mainargs>
    800018c4:	ad8ff0ef          	jal	ra,80000b9c <main>
    800018c8:	fc5ff0ef          	jal	ra,8000188c <_halt>

Disassembly of section .text.__am_init_uartlite:

00000000800018cc <__am_init_uartlite>:
    800018cc:	406007b7          	lui	a5,0x40600
    800018d0:	00300713          	li	a4,3
    800018d4:	00e78623          	sb	a4,12(a5) # 4060000c <_start-0x3f9ffff4>
    800018d8:	00008067          	ret

Disassembly of section .text.__am_uartlite_putchar:

00000000800018dc <__am_uartlite_putchar>:
    800018dc:	00a00793          	li	a5,10
    800018e0:	00f50e63          	beq	a0,a5,800018fc <__am_uartlite_putchar+0x20>
    800018e4:	40600737          	lui	a4,0x40600
    800018e8:	00874783          	lbu	a5,8(a4) # 40600008 <_start-0x3f9ffff8>
    800018ec:	0087f793          	andi	a5,a5,8
    800018f0:	fe079ce3          	bnez	a5,800018e8 <__am_uartlite_putchar+0xc>
    800018f4:	00a70223          	sb	a0,4(a4)
    800018f8:	00008067          	ret
    800018fc:	40600737          	lui	a4,0x40600
    80001900:	00874783          	lbu	a5,8(a4) # 40600008 <_start-0x3f9ffff8>
    80001904:	0087f793          	andi	a5,a5,8
    80001908:	fe079ce3          	bnez	a5,80001900 <__am_uartlite_putchar+0x24>
    8000190c:	00d00793          	li	a5,13
    80001910:	00f70223          	sb	a5,4(a4)
    80001914:	fd1ff06f          	j	800018e4 <__am_uartlite_putchar+0x8>

Disassembly of section .text._ioe_init:

0000000080001918 <_ioe_init>:
    80001918:	ff010113          	addi	sp,sp,-16
    8000191c:	00113423          	sd	ra,8(sp)
    80001920:	1e0000ef          	jal	ra,80001b00 <__am_vga_init>
    80001924:	140000ef          	jal	ra,80001a64 <__am_timer_init>
    80001928:	1dc000ef          	jal	ra,80001b04 <__am_audio_init>
    8000192c:	00813083          	ld	ra,8(sp)
    80001930:	00000513          	li	a0,0
    80001934:	01010113          	addi	sp,sp,16
    80001938:	00008067          	ret

Disassembly of section .text._io_read:

000000008000193c <_io_read>:
    8000193c:	0000b7b7          	lui	a5,0xb
    80001940:	00050713          	mv	a4,a0
    80001944:	c0478813          	addi	a6,a5,-1020 # ac04 <_start-0x7fff53fc>
    80001948:	00058513          	mv	a0,a1
    8000194c:	00060593          	mv	a1,a2
    80001950:	00068613          	mv	a2,a3
    80001954:	03070463          	beq	a4,a6,8000197c <_io_read+0x40>
    80001958:	00e86c63          	bltu	a6,a4,80001970 <_io_read+0x34>
    8000195c:	c0278693          	addi	a3,a5,-1022
    80001960:	02d70463          	beq	a4,a3,80001988 <_io_read+0x4c>
    80001964:	c0378793          	addi	a5,a5,-1021
    80001968:	00f71c63          	bne	a4,a5,80001980 <_io_read+0x44>
    8000196c:	0200006f          	j	8000198c <__am_timer_read>
    80001970:	c0778793          	addi	a5,a5,-1017
    80001974:	00f71663          	bne	a4,a5,80001980 <_io_read+0x44>
    80001978:	1900006f          	j	80001b08 <__am_audio_read>
    8000197c:	1440006f          	j	80001ac0 <__am_video_read>
    80001980:	00000513          	li	a0,0
    80001984:	00008067          	ret
    80001988:	1000006f          	j	80001a88 <__am_input_read>

Disassembly of section .text.__am_timer_read:

000000008000198c <__am_timer_read>:
    8000198c:	00100793          	li	a5,1
    80001990:	08f50263          	beq	a0,a5,80001a14 <__am_timer_read+0x88>
    80001994:	00200793          	li	a5,2
    80001998:	06f51a63          	bne	a0,a5,80001a0c <__am_timer_read+0x80>
    8000199c:	fe200793          	li	a5,-30
    800019a0:	00f58023          	sb	a5,0(a1)
    800019a4:	00700793          	li	a5,7
    800019a8:	00058a23          	sb	zero,20(a1)
    800019ac:	00058aa3          	sb	zero,21(a1)
    800019b0:	00058b23          	sb	zero,22(a1)
    800019b4:	00058ba3          	sb	zero,23(a1)
    800019b8:	00058823          	sb	zero,16(a1)
    800019bc:	000588a3          	sb	zero,17(a1)
    800019c0:	00058923          	sb	zero,18(a1)
    800019c4:	000589a3          	sb	zero,19(a1)
    800019c8:	00058623          	sb	zero,12(a1)
    800019cc:	000586a3          	sb	zero,13(a1)
    800019d0:	00058723          	sb	zero,14(a1)
    800019d4:	000587a3          	sb	zero,15(a1)
    800019d8:	00058423          	sb	zero,8(a1)
    800019dc:	000584a3          	sb	zero,9(a1)
    800019e0:	00058523          	sb	zero,10(a1)
    800019e4:	000585a3          	sb	zero,11(a1)
    800019e8:	00058223          	sb	zero,4(a1)
    800019ec:	000582a3          	sb	zero,5(a1)
    800019f0:	00058323          	sb	zero,6(a1)
    800019f4:	000583a3          	sb	zero,7(a1)
    800019f8:	00f580a3          	sb	a5,1(a1)
    800019fc:	00058123          	sb	zero,2(a1)
    80001a00:	000581a3          	sb	zero,3(a1)
    80001a04:	01800513          	li	a0,24
    80001a08:	00008067          	ret
    80001a0c:	00000513          	li	a0,0
    80001a10:	00008067          	ret
    80001a14:	3800c7b7          	lui	a5,0x3800c
    80001a18:	ff87b783          	ld	a5,-8(a5) # 3800bff8 <_start-0x47ff4008>
    80001a1c:	3e800713          	li	a4,1000
    80001a20:	00058023          	sb	zero,0(a1)
    80001a24:	02e7d7b3          	divu	a5,a5,a4
    80001a28:	00001717          	auipc	a4,0x1
    80001a2c:	2e073703          	ld	a4,736(a4) # 80002d08 <boot_time>
    80001a30:	000580a3          	sb	zero,1(a1)
    80001a34:	00058123          	sb	zero,2(a1)
    80001a38:	000581a3          	sb	zero,3(a1)
    80001a3c:	00800513          	li	a0,8
    80001a40:	40e787bb          	subw	a5,a5,a4
    80001a44:	0087d61b          	srliw	a2,a5,0x8
    80001a48:	0107d69b          	srliw	a3,a5,0x10
    80001a4c:	0187d71b          	srliw	a4,a5,0x18
    80001a50:	00f58223          	sb	a5,4(a1)
    80001a54:	00c582a3          	sb	a2,5(a1)
    80001a58:	00d58323          	sb	a3,6(a1)
    80001a5c:	00e583a3          	sb	a4,7(a1)
    80001a60:	00008067          	ret

Disassembly of section .text.__am_timer_init:

0000000080001a64 <__am_timer_init>:
    80001a64:	3800c7b7          	lui	a5,0x3800c
    80001a68:	ff87b783          	ld	a5,-8(a5) # 3800bff8 <_start-0x47ff4008>
    80001a6c:	3e800713          	li	a4,1000
    80001a70:	02e7d7b3          	divu	a5,a5,a4
    80001a74:	02079793          	slli	a5,a5,0x20
    80001a78:	0207d793          	srli	a5,a5,0x20
    80001a7c:	00001717          	auipc	a4,0x1
    80001a80:	28f73623          	sd	a5,652(a4) # 80002d08 <boot_time>
    80001a84:	00008067          	ret

Disassembly of section .text.__am_input_read:

0000000080001a88 <__am_input_read>:
    80001a88:	00100793          	li	a5,1
    80001a8c:	00f50663          	beq	a0,a5,80001a98 <__am_input_read+0x10>
    80001a90:	00000513          	li	a0,0
    80001a94:	00008067          	ret
    80001a98:	00058023          	sb	zero,0(a1)
    80001a9c:	000580a3          	sb	zero,1(a1)
    80001aa0:	00058123          	sb	zero,2(a1)
    80001aa4:	000581a3          	sb	zero,3(a1)
    80001aa8:	00058223          	sb	zero,4(a1)
    80001aac:	000582a3          	sb	zero,5(a1)
    80001ab0:	00058323          	sb	zero,6(a1)
    80001ab4:	000583a3          	sb	zero,7(a1)
    80001ab8:	00800513          	li	a0,8
    80001abc:	00008067          	ret

Disassembly of section .text.__am_video_read:

0000000080001ac0 <__am_video_read>:
    80001ac0:	00100793          	li	a5,1
    80001ac4:	00f50663          	beq	a0,a5,80001ad0 <__am_video_read+0x10>
    80001ac8:	00000513          	li	a0,0
    80001acc:	00008067          	ret
    80001ad0:	04000793          	li	a5,64
    80001ad4:	00f58023          	sb	a5,0(a1)
    80001ad8:	ff000793          	li	a5,-16
    80001adc:	00a580a3          	sb	a0,1(a1)
    80001ae0:	00058123          	sb	zero,2(a1)
    80001ae4:	000581a3          	sb	zero,3(a1)
    80001ae8:	00f58223          	sb	a5,4(a1)
    80001aec:	000582a3          	sb	zero,5(a1)
    80001af0:	00058323          	sb	zero,6(a1)
    80001af4:	000583a3          	sb	zero,7(a1)
    80001af8:	00800513          	li	a0,8
    80001afc:	00008067          	ret

Disassembly of section .text.__am_vga_init:

0000000080001b00 <__am_vga_init>:
    80001b00:	00008067          	ret

Disassembly of section .text.__am_audio_init:

0000000080001b04 <__am_audio_init>:
    80001b04:	00008067          	ret

Disassembly of section .text.__am_audio_read:

0000000080001b08 <__am_audio_read>:
    80001b08:	00000513          	li	a0,0
    80001b0c:	00008067          	ret

Disassembly of section .text.strcmp:

0000000080001b10 <strcmp>:
    80001b10:	00054783          	lbu	a5,0(a0)
    80001b14:	00079a63          	bnez	a5,80001b28 <strcmp+0x18>
    80001b18:	03c0006f          	j	80001b54 <strcmp+0x44>
    80001b1c:	00054783          	lbu	a5,0(a0)
    80001b20:	02078263          	beqz	a5,80001b44 <strcmp+0x34>
    80001b24:	00068593          	mv	a1,a3
    80001b28:	0005c703          	lbu	a4,0(a1)
    80001b2c:	00150513          	addi	a0,a0,1
    80001b30:	00158693          	addi	a3,a1,1
    80001b34:	fef704e3          	beq	a4,a5,80001b1c <strcmp+0xc>
    80001b38:	0007851b          	sext.w	a0,a5
    80001b3c:	40e5053b          	subw	a0,a0,a4
    80001b40:	00008067          	ret
    80001b44:	0015c703          	lbu	a4,1(a1)
    80001b48:	00000513          	li	a0,0
    80001b4c:	40e5053b          	subw	a0,a0,a4
    80001b50:	00008067          	ret
    80001b54:	0005c703          	lbu	a4,0(a1)
    80001b58:	00000513          	li	a0,0
    80001b5c:	fe1ff06f          	j	80001b3c <strcmp+0x2c>

Disassembly of section .text.uptime:

0000000080001b60 <uptime>:
    80001b60:	fe010113          	addi	sp,sp,-32
    80001b64:	0000b537          	lui	a0,0xb
    80001b68:	00810613          	addi	a2,sp,8
    80001b6c:	00800693          	li	a3,8
    80001b70:	00100593          	li	a1,1
    80001b74:	c0350513          	addi	a0,a0,-1021 # ac03 <_start-0x7fff53fd>
    80001b78:	00113c23          	sd	ra,24(sp)
    80001b7c:	dc1ff0ef          	jal	ra,8000193c <_io_read>
    80001b80:	01813083          	ld	ra,24(sp)
    80001b84:	00c12503          	lw	a0,12(sp)
    80001b88:	02010113          	addi	sp,sp,32
    80001b8c:	00008067          	ret

Disassembly of section .text._out_null:

0000000080001b90 <_out_null>:
    80001b90:	00008067          	ret

Disassembly of section .text._ntoa_long:

0000000080001b94 <_ntoa_long>:
    80001b94:	f8010113          	addi	sp,sp,-128
    80001b98:	08812e83          	lw	t4,136(sp)
    80001b9c:	06913423          	sd	s1,104(sp)
    80001ba0:	07213023          	sd	s2,96(sp)
    80001ba4:	05313c23          	sd	s3,88(sp)
    80001ba8:	05413823          	sd	s4,80(sp)
    80001bac:	05513423          	sd	s5,72(sp)
    80001bb0:	06113c23          	sd	ra,120(sp)
    80001bb4:	06813823          	sd	s0,112(sp)
    80001bb8:	05613023          	sd	s6,64(sp)
    80001bbc:	03713c23          	sd	s7,56(sp)
    80001bc0:	03813823          	sd	s8,48(sp)
    80001bc4:	03913423          	sd	s9,40(sp)
    80001bc8:	08012a03          	lw	s4,128(sp)
    80001bcc:	00050493          	mv	s1,a0
    80001bd0:	00058913          	mv	s2,a1
    80001bd4:	00060993          	mv	s3,a2
    80001bd8:	00068a93          	mv	s5,a3
    80001bdc:	400eff93          	andi	t6,t4,1024
    80001be0:	18071a63          	bnez	a4,80001d74 <_ntoa_long+0x1e0>
    80001be4:	000e8b93          	mv	s7,t4
    80001be8:	fefefe93          	andi	t4,t4,-17
    80001bec:	1a0f9063          	bnez	t6,80001d8c <_ntoa_long+0x1f8>
    80001bf0:	020ef693          	andi	a3,t4,32
    80001bf4:	00000293          	li	t0,0
    80001bf8:	06100593          	li	a1,97
    80001bfc:	18069463          	bnez	a3,80001d84 <_ntoa_long+0x1f0>
    80001c00:	00000313          	li	t1,0
    80001c04:	00010b13          	mv	s6,sp
    80001c08:	00900513          	li	a0,9
    80001c0c:	ff65859b          	addiw	a1,a1,-10
    80001c10:	02000f13          	li	t5,32
    80001c14:	00c0006f          	j	80001c20 <_ntoa_long+0x8c>
    80001c18:	03e30c63          	beq	t1,t5,80001c50 <_ntoa_long+0xbc>
    80001c1c:	00068713          	mv	a4,a3
    80001c20:	030776b3          	remu	a3,a4,a6
    80001c24:	0ff6fe13          	zext.b	t3,a3
    80001c28:	030e061b          	addiw	a2,t3,48
    80001c2c:	01c58e3b          	addw	t3,a1,t3
    80001c30:	0ffe7e13          	zext.b	t3,t3
    80001c34:	00d56463          	bltu	a0,a3,80001c3c <_ntoa_long+0xa8>
    80001c38:	0ff67e13          	zext.b	t3,a2
    80001c3c:	00130313          	addi	t1,t1,1
    80001c40:	006b06b3          	add	a3,s6,t1
    80001c44:	ffc68fa3          	sb	t3,-1(a3)
    80001c48:	030756b3          	divu	a3,a4,a6
    80001c4c:	fd0776e3          	bgeu	a4,a6,80001c18 <_ntoa_long+0x84>
    80001c50:	002efb93          	andi	s7,t4,2
    80001c54:	140b8663          	beqz	s7,80001da0 <_ntoa_long+0x20c>
    80001c58:	20028e63          	beqz	t0,80001e74 <_ntoa_long+0x2e0>
    80001c5c:	1e0f9463          	bnez	t6,80001e44 <_ntoa_long+0x2b0>
    80001c60:	1c031663          	bnez	t1,80001e2c <_ntoa_long+0x298>
    80001c64:	01000713          	li	a4,16
    80001c68:	36e80e63          	beq	a6,a4,80001fe4 <_ntoa_long+0x450>
    80001c6c:	00200713          	li	a4,2
    80001c70:	38e80e63          	beq	a6,a4,8000200c <_ntoa_long+0x478>
    80001c74:	03000713          	li	a4,48
    80001c78:	00e10023          	sb	a4,0(sp)
    80001c7c:	00100313          	li	t1,1
    80001c80:	26078263          	beqz	a5,80001ee4 <_ntoa_long+0x350>
    80001c84:	02030793          	addi	a5,t1,32
    80001c88:	002787b3          	add	a5,a5,sp
    80001c8c:	02d00713          	li	a4,45
    80001c90:	00130413          	addi	s0,t1,1
    80001c94:	fee78023          	sb	a4,-32(a5)
    80001c98:	003efe93          	andi	t4,t4,3
    80001c9c:	220e9463          	bnez	t4,80001ec4 <_ntoa_long+0x330>
    80001ca0:	020a1c13          	slli	s8,s4,0x20
    80001ca4:	020c5c13          	srli	s8,s8,0x20
    80001ca8:	21847e63          	bgeu	s0,s8,80001ec4 <_ntoa_long+0x330>
    80001cac:	408c0c33          	sub	s8,s8,s0
    80001cb0:	013c0c33          	add	s8,s8,s3
    80001cb4:	00098b13          	mv	s6,s3
    80001cb8:	000b0613          	mv	a2,s6
    80001cbc:	000a8693          	mv	a3,s5
    80001cc0:	001b0b13          	addi	s6,s6,1
    80001cc4:	00090593          	mv	a1,s2
    80001cc8:	02000513          	li	a0,32
    80001ccc:	000480e7          	jalr	s1
    80001cd0:	ff8b14e3          	bne	s6,s8,80001cb8 <_ntoa_long+0x124>
    80001cd4:	000c0c93          	mv	s9,s8
    80001cd8:	02040863          	beqz	s0,80001d08 <_ntoa_long+0x174>
    80001cdc:	00010b13          	mv	s6,sp
    80001ce0:	01840c33          	add	s8,s0,s8
    80001ce4:	008b07b3          	add	a5,s6,s0
    80001ce8:	fff7c503          	lbu	a0,-1(a5)
    80001cec:	408c0633          	sub	a2,s8,s0
    80001cf0:	000a8693          	mv	a3,s5
    80001cf4:	fff40413          	addi	s0,s0,-1
    80001cf8:	00090593          	mv	a1,s2
    80001cfc:	000c0c93          	mv	s9,s8
    80001d00:	000480e7          	jalr	s1
    80001d04:	fe0410e3          	bnez	s0,80001ce4 <_ntoa_long+0x150>
    80001d08:	020b8a63          	beqz	s7,80001d3c <_ntoa_long+0x1a8>
    80001d0c:	020a1a13          	slli	s4,s4,0x20
    80001d10:	413c89b3          	sub	s3,s9,s3
    80001d14:	020a5a13          	srli	s4,s4,0x20
    80001d18:	0349f263          	bgeu	s3,s4,80001d3c <_ntoa_long+0x1a8>
    80001d1c:	000c8613          	mv	a2,s9
    80001d20:	00198993          	addi	s3,s3,1
    80001d24:	000a8693          	mv	a3,s5
    80001d28:	00090593          	mv	a1,s2
    80001d2c:	02000513          	li	a0,32
    80001d30:	001c8c93          	addi	s9,s9,1
    80001d34:	000480e7          	jalr	s1
    80001d38:	ff49e2e3          	bltu	s3,s4,80001d1c <_ntoa_long+0x188>
    80001d3c:	07813083          	ld	ra,120(sp)
    80001d40:	07013403          	ld	s0,112(sp)
    80001d44:	06813483          	ld	s1,104(sp)
    80001d48:	06013903          	ld	s2,96(sp)
    80001d4c:	05813983          	ld	s3,88(sp)
    80001d50:	05013a03          	ld	s4,80(sp)
    80001d54:	04813a83          	ld	s5,72(sp)
    80001d58:	04013b03          	ld	s6,64(sp)
    80001d5c:	03813b83          	ld	s7,56(sp)
    80001d60:	03013c03          	ld	s8,48(sp)
    80001d64:	000c8513          	mv	a0,s9
    80001d68:	02813c83          	ld	s9,40(sp)
    80001d6c:	08010113          	addi	sp,sp,128
    80001d70:	00008067          	ret
    80001d74:	020ef693          	andi	a3,t4,32
    80001d78:	010ef293          	andi	t0,t4,16
    80001d7c:	06100593          	li	a1,97
    80001d80:	e80680e3          	beqz	a3,80001c00 <_ntoa_long+0x6c>
    80001d84:	04100593          	li	a1,65
    80001d88:	e79ff06f          	j	80001c00 <_ntoa_long+0x6c>
    80001d8c:	002bfb93          	andi	s7,s7,2
    80001d90:	00000313          	li	t1,0
    80001d94:	ee0b96e3          	bnez	s7,80001c80 <_ntoa_long+0xec>
    80001d98:	00000293          	li	t0,0
    80001d9c:	00000313          	li	t1,0
    80001da0:	02089693          	slli	a3,a7,0x20
    80001da4:	000e8713          	mv	a4,t4
    80001da8:	001efb93          	andi	s7,t4,1
    80001dac:	0206d693          	srli	a3,a3,0x20
    80001db0:	0e0a1063          	bnez	s4,80001e90 <_ntoa_long+0x2fc>
    80001db4:	02d37863          	bgeu	t1,a3,80001de4 <_ntoa_long+0x250>
    80001db8:	02000713          	li	a4,32
    80001dbc:	02e30463          	beq	t1,a4,80001de4 <_ntoa_long+0x250>
    80001dc0:	00010b13          	mv	s6,sp
    80001dc4:	03000613          	li	a2,48
    80001dc8:	02000593          	li	a1,32
    80001dcc:	0080006f          	j	80001dd4 <_ntoa_long+0x240>
    80001dd0:	00b30a63          	beq	t1,a1,80001de4 <_ntoa_long+0x250>
    80001dd4:	00130313          	addi	t1,t1,1
    80001dd8:	006b0733          	add	a4,s6,t1
    80001ddc:	fec70fa3          	sb	a2,-1(a4)
    80001de0:	fed368e3          	bltu	t1,a3,80001dd0 <_ntoa_long+0x23c>
    80001de4:	e60b8ae3          	beqz	s7,80001c58 <_ntoa_long+0xc4>
    80001de8:	020a1613          	slli	a2,s4,0x20
    80001dec:	02065613          	srli	a2,a2,0x20
    80001df0:	02c37863          	bgeu	t1,a2,80001e20 <_ntoa_long+0x28c>
    80001df4:	02000713          	li	a4,32
    80001df8:	00010b13          	mv	s6,sp
    80001dfc:	03000593          	li	a1,48
    80001e00:	02000513          	li	a0,32
    80001e04:	00e31663          	bne	t1,a4,80001e10 <_ntoa_long+0x27c>
    80001e08:	0a80006f          	j	80001eb0 <_ntoa_long+0x31c>
    80001e0c:	0aa30263          	beq	t1,a0,80001eb0 <_ntoa_long+0x31c>
    80001e10:	00130313          	addi	t1,t1,1
    80001e14:	006b0733          	add	a4,s6,t1
    80001e18:	feb70fa3          	sb	a1,-1(a4)
    80001e1c:	fec318e3          	bne	t1,a2,80001e0c <_ntoa_long+0x278>
    80001e20:	00000b93          	li	s7,0
    80001e24:	e2029ce3          	bnez	t0,80001c5c <_ntoa_long+0xc8>
    80001e28:	04c0006f          	j	80001e74 <_ntoa_long+0x2e0>
    80001e2c:	02089693          	slli	a3,a7,0x20
    80001e30:	0206d693          	srli	a3,a3,0x20
    80001e34:	12668263          	beq	a3,t1,80001f58 <_ntoa_long+0x3c4>
    80001e38:	020a1713          	slli	a4,s4,0x20
    80001e3c:	02075713          	srli	a4,a4,0x20
    80001e40:	10670c63          	beq	a4,t1,80001f58 <_ntoa_long+0x3c4>
    80001e44:	01000713          	li	a4,16
    80001e48:	12e80e63          	beq	a6,a4,80001f84 <_ntoa_long+0x3f0>
    80001e4c:	00200713          	li	a4,2
    80001e50:	0ee80463          	beq	a6,a4,80001f38 <_ntoa_long+0x3a4>
    80001e54:	02000713          	li	a4,32
    80001e58:	02e30263          	beq	t1,a4,80001e7c <_ntoa_long+0x2e8>
    80001e5c:	00030713          	mv	a4,t1
    80001e60:	02070693          	addi	a3,a4,32
    80001e64:	002686b3          	add	a3,a3,sp
    80001e68:	00170313          	addi	t1,a4,1
    80001e6c:	03000713          	li	a4,48
    80001e70:	fee68023          	sb	a4,-32(a3)
    80001e74:	02000713          	li	a4,32
    80001e78:	e0e314e3          	bne	t1,a4,80001c80 <_ntoa_long+0xec>
    80001e7c:	003efe93          	andi	t4,t4,3
    80001e80:	040e8663          	beqz	t4,80001ecc <_ntoa_long+0x338>
    80001e84:	00098c13          	mv	s8,s3
    80001e88:	02000413          	li	s0,32
    80001e8c:	e51ff06f          	j	80001cdc <_ntoa_long+0x148>
    80001e90:	060b8e63          	beqz	s7,80001f0c <_ntoa_long+0x378>
    80001e94:	0a079e63          	bnez	a5,80001f50 <_ntoa_long+0x3bc>
    80001e98:	00c77713          	andi	a4,a4,12
    80001e9c:	0a071a63          	bnez	a4,80001f50 <_ntoa_long+0x3bc>
    80001ea0:	f4d374e3          	bgeu	t1,a3,80001de8 <_ntoa_long+0x254>
    80001ea4:	02000713          	li	a4,32
    80001ea8:	f0e31ce3          	bne	t1,a4,80001dc0 <_ntoa_long+0x22c>
    80001eac:	f7437ae3          	bgeu	t1,s4,80001e20 <_ntoa_long+0x28c>
    80001eb0:	00000b93          	li	s7,0
    80001eb4:	fc0284e3          	beqz	t0,80001e7c <_ntoa_long+0x2e8>
    80001eb8:	02000313          	li	t1,32
    80001ebc:	f60f8ce3          	beqz	t6,80001e34 <_ntoa_long+0x2a0>
    80001ec0:	f85ff06f          	j	80001e44 <_ntoa_long+0x2b0>
    80001ec4:	00098c13          	mv	s8,s3
    80001ec8:	e15ff06f          	j	80001cdc <_ntoa_long+0x148>
    80001ecc:	02000413          	li	s0,32
    80001ed0:	020a1c13          	slli	s8,s4,0x20
    80001ed4:	020c5c13          	srli	s8,s8,0x20
    80001ed8:	dd846ae3          	bltu	s0,s8,80001cac <_ntoa_long+0x118>
    80001edc:	00098c13          	mv	s8,s3
    80001ee0:	df5ff06f          	j	80001cd4 <_ntoa_long+0x140>
    80001ee4:	004ef793          	andi	a5,t4,4
    80001ee8:	000e8713          	mv	a4,t4
    80001eec:	02079a63          	bnez	a5,80001f20 <_ntoa_long+0x38c>
    80001ef0:	008ef793          	andi	a5,t4,8
    80001ef4:	0a079c63          	bnez	a5,80001fac <_ntoa_long+0x418>
    80001ef8:	00377713          	andi	a4,a4,3
    80001efc:	00030413          	mv	s0,t1
    80001f00:	fc0708e3          	beqz	a4,80001ed0 <_ntoa_long+0x33c>
    80001f04:	00098c13          	mv	s8,s3
    80001f08:	dcdff06f          	j	80001cd4 <_ntoa_long+0x140>
    80001f0c:	d4d376e3          	bgeu	t1,a3,80001c58 <_ntoa_long+0xc4>
    80001f10:	02000713          	li	a4,32
    80001f14:	eae316e3          	bne	t1,a4,80001dc0 <_ntoa_long+0x22c>
    80001f18:	d40292e3          	bnez	t0,80001c5c <_ntoa_long+0xc8>
    80001f1c:	f59ff06f          	j	80001e74 <_ntoa_long+0x2e0>
    80001f20:	02030793          	addi	a5,t1,32
    80001f24:	002787b3          	add	a5,a5,sp
    80001f28:	02b00713          	li	a4,43
    80001f2c:	00130413          	addi	s0,t1,1
    80001f30:	fee78023          	sb	a4,-32(a5)
    80001f34:	d65ff06f          	j	80001c98 <_ntoa_long+0x104>
    80001f38:	02000713          	li	a4,32
    80001f3c:	f4e300e3          	beq	t1,a4,80001e7c <_ntoa_long+0x2e8>
    80001f40:	00010b13          	mv	s6,sp
    80001f44:	006b0b33          	add	s6,s6,t1
    80001f48:	00130313          	addi	t1,t1,1
    80001f4c:	02c0006f          	j	80001f78 <_ntoa_long+0x3e4>
    80001f50:	fffa0a1b          	addiw	s4,s4,-1
    80001f54:	f4dff06f          	j	80001ea0 <_ntoa_long+0x30c>
    80001f58:	fff30713          	addi	a4,t1,-1
    80001f5c:	d00704e3          	beqz	a4,80001c64 <_ntoa_long+0xd0>
    80001f60:	01000693          	li	a3,16
    80001f64:	0ad80c63          	beq	a6,a3,8000201c <_ntoa_long+0x488>
    80001f68:	00010b13          	mv	s6,sp
    80001f6c:	00200693          	li	a3,2
    80001f70:	00eb0b33          	add	s6,s6,a4
    80001f74:	eed816e3          	bne	a6,a3,80001e60 <_ntoa_long+0x2cc>
    80001f78:	06200713          	li	a4,98
    80001f7c:	00eb0023          	sb	a4,0(s6)
    80001f80:	ed5ff06f          	j	80001e54 <_ntoa_long+0x2c0>
    80001f84:	020ef713          	andi	a4,t4,32
    80001f88:	02071e63          	bnez	a4,80001fc4 <_ntoa_long+0x430>
    80001f8c:	02000713          	li	a4,32
    80001f90:	eee306e3          	beq	t1,a4,80001e7c <_ntoa_long+0x2e8>
    80001f94:	00010b13          	mv	s6,sp
    80001f98:	006b0b33          	add	s6,s6,t1
    80001f9c:	00130313          	addi	t1,t1,1
    80001fa0:	07800713          	li	a4,120
    80001fa4:	00eb0023          	sb	a4,0(s6)
    80001fa8:	eadff06f          	j	80001e54 <_ntoa_long+0x2c0>
    80001fac:	02030793          	addi	a5,t1,32
    80001fb0:	002787b3          	add	a5,a5,sp
    80001fb4:	02000713          	li	a4,32
    80001fb8:	00130413          	addi	s0,t1,1
    80001fbc:	fee78023          	sb	a4,-32(a5)
    80001fc0:	cd9ff06f          	j	80001c98 <_ntoa_long+0x104>
    80001fc4:	02000713          	li	a4,32
    80001fc8:	eae30ae3          	beq	t1,a4,80001e7c <_ntoa_long+0x2e8>
    80001fcc:	02030713          	addi	a4,t1,32
    80001fd0:	00270733          	add	a4,a4,sp
    80001fd4:	05800693          	li	a3,88
    80001fd8:	fed70023          	sb	a3,-32(a4)
    80001fdc:	00130313          	addi	t1,t1,1
    80001fe0:	e75ff06f          	j	80001e54 <_ntoa_long+0x2c0>
    80001fe4:	020ef713          	andi	a4,t4,32
    80001fe8:	00071a63          	bnez	a4,80001ffc <_ntoa_long+0x468>
    80001fec:	07800713          	li	a4,120
    80001ff0:	00e10023          	sb	a4,0(sp)
    80001ff4:	00100713          	li	a4,1
    80001ff8:	e69ff06f          	j	80001e60 <_ntoa_long+0x2cc>
    80001ffc:	05800713          	li	a4,88
    80002000:	00e10023          	sb	a4,0(sp)
    80002004:	00100713          	li	a4,1
    80002008:	e59ff06f          	j	80001e60 <_ntoa_long+0x2cc>
    8000200c:	06200713          	li	a4,98
    80002010:	00e10023          	sb	a4,0(sp)
    80002014:	00100713          	li	a4,1
    80002018:	e49ff06f          	j	80001e60 <_ntoa_long+0x2cc>
    8000201c:	020ef693          	andi	a3,t4,32
    80002020:	ffe30313          	addi	t1,t1,-2
    80002024:	fa0694e3          	bnez	a3,80001fcc <_ntoa_long+0x438>
    80002028:	00010b13          	mv	s6,sp
    8000202c:	006b0b33          	add	s6,s6,t1
    80002030:	00070313          	mv	t1,a4
    80002034:	f6dff06f          	j	80001fa0 <_ntoa_long+0x40c>

Disassembly of section .text._out_char:

0000000080002038 <_out_char>:
    80002038:	00051463          	bnez	a0,80002040 <_out_char+0x8>
    8000203c:	00008067          	ret
    80002040:	849ff06f          	j	80001888 <_putc>

Disassembly of section .text._vsnprintf:

0000000080002044 <_vsnprintf>:
    80002044:	f5010113          	addi	sp,sp,-176
    80002048:	08913c23          	sd	s1,152(sp)
    8000204c:	09213823          	sd	s2,144(sp)
    80002050:	09413023          	sd	s4,128(sp)
    80002054:	07813023          	sd	s8,96(sp)
    80002058:	05a13823          	sd	s10,80(sp)
    8000205c:	0a113423          	sd	ra,168(sp)
    80002060:	0a813023          	sd	s0,160(sp)
    80002064:	09313423          	sd	s3,136(sp)
    80002068:	07513c23          	sd	s5,120(sp)
    8000206c:	07613823          	sd	s6,112(sp)
    80002070:	07713423          	sd	s7,104(sp)
    80002074:	05913c23          	sd	s9,88(sp)
    80002078:	05b13423          	sd	s11,72(sp)
    8000207c:	00058493          	mv	s1,a1
    80002080:	00060d13          	mv	s10,a2
    80002084:	00068c13          	mv	s8,a3
    80002088:	00070a13          	mv	s4,a4
    8000208c:	00000917          	auipc	s2,0x0
    80002090:	b0490913          	addi	s2,s2,-1276 # 80001b90 <_out_null>
    80002094:	00058463          	beqz	a1,8000209c <_vsnprintf+0x58>
    80002098:	00050913          	mv	s2,a0
    8000209c:	000c4503          	lbu	a0,0(s8)
    800020a0:	00000d93          	li	s11,0
    800020a4:	6a050463          	beqz	a0,8000274c <_vsnprintf+0x708>
    800020a8:	000107b7          	lui	a5,0x10
    800020ac:	fff78793          	addi	a5,a5,-1 # ffff <_start-0x7fff0001>
    800020b0:	00121cb7          	lui	s9,0x121
    800020b4:	02f13423          	sd	a5,40(sp)
    800020b8:	821c8793          	addi	a5,s9,-2015 # 120821 <_start-0x7fedf7df>
    800020bc:	02500a93          	li	s5,37
    800020c0:	00001997          	auipc	s3,0x1
    800020c4:	ae898993          	addi	s3,s3,-1304 # 80002ba8 <__am_mainargs+0x3>
    800020c8:	02f13023          	sd	a5,32(sp)
    800020cc:	0200006f          	j	800020ec <_vsnprintf+0xa8>
    800020d0:	000d8613          	mv	a2,s11
    800020d4:	000d0693          	mv	a3,s10
    800020d8:	00048593          	mv	a1,s1
    800020dc:	001d8d93          	addi	s11,s11,1
    800020e0:	000900e7          	jalr	s2
    800020e4:	000c4503          	lbu	a0,0(s8)
    800020e8:	12050263          	beqz	a0,8000220c <_vsnprintf+0x1c8>
    800020ec:	001c0c13          	addi	s8,s8,1
    800020f0:	ff5510e3          	bne	a0,s5,800020d0 <_vsnprintf+0x8c>
    800020f4:	00000413          	li	s0,0
    800020f8:	01000613          	li	a2,16
    800020fc:	000c4503          	lbu	a0,0(s8)
    80002100:	001c0713          	addi	a4,s8,1
    80002104:	fe05079b          	addiw	a5,a0,-32
    80002108:	0ff7f793          	zext.b	a5,a5
    8000210c:	00f66c63          	bltu	a2,a5,80002124 <_vsnprintf+0xe0>
    80002110:	00279793          	slli	a5,a5,0x2
    80002114:	013787b3          	add	a5,a5,s3
    80002118:	0007a783          	lw	a5,0(a5)
    8000211c:	013787b3          	add	a5,a5,s3
    80002120:	00078067          	jr	a5
    80002124:	fd05079b          	addiw	a5,a0,-48
    80002128:	0ff7f793          	zext.b	a5,a5
    8000212c:	00900613          	li	a2,9
    80002130:	2af67c63          	bgeu	a2,a5,800023e8 <_vsnprintf+0x3a4>
    80002134:	02a00793          	li	a5,42
    80002138:	00000c93          	li	s9,0
    8000213c:	2ef50263          	beq	a0,a5,80002420 <_vsnprintf+0x3dc>
    80002140:	02e00793          	li	a5,46
    80002144:	00000b93          	li	s7,0
    80002148:	26f50863          	beq	a0,a5,800023b8 <_vsnprintf+0x374>
    8000214c:	f985079b          	addiw	a5,a0,-104
    80002150:	0ff7f793          	zext.b	a5,a5
    80002154:	01200613          	li	a2,18
    80002158:	02f66663          	bltu	a2,a5,80002184 <_vsnprintf+0x140>
    8000215c:	00001697          	auipc	a3,0x1
    80002160:	a9068693          	addi	a3,a3,-1392 # 80002bec <__am_mainargs+0x47>
    80002164:	00279793          	slli	a5,a5,0x2
    80002168:	00d787b3          	add	a5,a5,a3
    8000216c:	0007a783          	lw	a5,0(a5)
    80002170:	00d787b3          	add	a5,a5,a3
    80002174:	00078067          	jr	a5
    80002178:	001c4503          	lbu	a0,1(s8)
    8000217c:	10046413          	ori	s0,s0,256
    80002180:	00170713          	addi	a4,a4,1
    80002184:	07800613          	li	a2,120
    80002188:	00070c13          	mv	s8,a4
    8000218c:	f4a662e3          	bltu	a2,a0,800020d0 <_vsnprintf+0x8c>
    80002190:	06300793          	li	a5,99
    80002194:	12a7ea63          	bltu	a5,a0,800022c8 <_vsnprintf+0x284>
    80002198:	06200713          	li	a4,98
    8000219c:	58e50c63          	beq	a0,a4,80002734 <_vsnprintf+0x6f0>
    800021a0:	10f51463          	bne	a0,a5,800022a8 <_vsnprintf+0x264>
    800021a4:	00247413          	andi	s0,s0,2
    800021a8:	008a0b93          	addi	s7,s4,8
    800021ac:	4a040863          	beqz	s0,8000265c <_vsnprintf+0x618>
    800021b0:	000a4503          	lbu	a0,0(s4)
    800021b4:	000d0693          	mv	a3,s10
    800021b8:	000d8613          	mv	a2,s11
    800021bc:	00048593          	mv	a1,s1
    800021c0:	000900e7          	jalr	s2
    800021c4:	00100793          	li	a5,1
    800021c8:	001d8413          	addi	s0,s11,1
    800021cc:	6d97f063          	bgeu	a5,s9,8000288c <_vsnprintf+0x848>
    800021d0:	ffec879b          	addiw	a5,s9,-2
    800021d4:	02079793          	slli	a5,a5,0x20
    800021d8:	002d8e13          	addi	t3,s11,2
    800021dc:	0207d793          	srli	a5,a5,0x20
    800021e0:	00fe0db3          	add	s11,t3,a5
    800021e4:	00040613          	mv	a2,s0
    800021e8:	000d0693          	mv	a3,s10
    800021ec:	00140413          	addi	s0,s0,1
    800021f0:	00048593          	mv	a1,s1
    800021f4:	02000513          	li	a0,32
    800021f8:	000900e7          	jalr	s2
    800021fc:	fe8d94e3          	bne	s11,s0,800021e4 <_vsnprintf+0x1a0>
    80002200:	000b8a13          	mv	s4,s7
    80002204:	000c4503          	lbu	a0,0(s8)
    80002208:	ee0512e3          	bnez	a0,800020ec <_vsnprintf+0xa8>
    8000220c:	000d841b          	sext.w	s0,s11
    80002210:	01ade463          	bltu	s11,s10,80002218 <_vsnprintf+0x1d4>
    80002214:	fffd0d93          	addi	s11,s10,-1
    80002218:	000d0693          	mv	a3,s10
    8000221c:	000d8613          	mv	a2,s11
    80002220:	00048593          	mv	a1,s1
    80002224:	00000513          	li	a0,0
    80002228:	000900e7          	jalr	s2
    8000222c:	0a813083          	ld	ra,168(sp)
    80002230:	00040513          	mv	a0,s0
    80002234:	0a013403          	ld	s0,160(sp)
    80002238:	09813483          	ld	s1,152(sp)
    8000223c:	09013903          	ld	s2,144(sp)
    80002240:	08813983          	ld	s3,136(sp)
    80002244:	08013a03          	ld	s4,128(sp)
    80002248:	07813a83          	ld	s5,120(sp)
    8000224c:	07013b03          	ld	s6,112(sp)
    80002250:	06813b83          	ld	s7,104(sp)
    80002254:	06013c03          	ld	s8,96(sp)
    80002258:	05813c83          	ld	s9,88(sp)
    8000225c:	05013d03          	ld	s10,80(sp)
    80002260:	04813d83          	ld	s11,72(sp)
    80002264:	0b010113          	addi	sp,sp,176
    80002268:	00008067          	ret
    8000226c:	00146413          	ori	s0,s0,1
    80002270:	00070c13          	mv	s8,a4
    80002274:	e89ff06f          	j	800020fc <_vsnprintf+0xb8>
    80002278:	00246413          	ori	s0,s0,2
    8000227c:	00070c13          	mv	s8,a4
    80002280:	e7dff06f          	j	800020fc <_vsnprintf+0xb8>
    80002284:	00446413          	ori	s0,s0,4
    80002288:	00070c13          	mv	s8,a4
    8000228c:	e71ff06f          	j	800020fc <_vsnprintf+0xb8>
    80002290:	01046413          	ori	s0,s0,16
    80002294:	00070c13          	mv	s8,a4
    80002298:	e65ff06f          	j	800020fc <_vsnprintf+0xb8>
    8000229c:	00846413          	ori	s0,s0,8
    800022a0:	00070c13          	mv	s8,a4
    800022a4:	e59ff06f          	j	800020fc <_vsnprintf+0xb8>
    800022a8:	09551463          	bne	a0,s5,80002330 <_vsnprintf+0x2ec>
    800022ac:	000d8613          	mv	a2,s11
    800022b0:	000d0693          	mv	a3,s10
    800022b4:	00048593          	mv	a1,s1
    800022b8:	02500513          	li	a0,37
    800022bc:	001d8d93          	addi	s11,s11,1
    800022c0:	000900e7          	jalr	s2
    800022c4:	e21ff06f          	j	800020e4 <_vsnprintf+0xa0>
    800022c8:	f9c5071b          	addiw	a4,a0,-100
    800022cc:	00100793          	li	a5,1
    800022d0:	00e797b3          	sll	a5,a5,a4
    800022d4:	02013703          	ld	a4,32(sp)
    800022d8:	00e7f7b3          	and	a5,a5,a4
    800022dc:	28079e63          	bnez	a5,80002578 <_vsnprintf+0x534>
    800022e0:	07300793          	li	a5,115
    800022e4:	1af50463          	beq	a0,a5,8000248c <_vsnprintf+0x448>
    800022e8:	07000793          	li	a5,112
    800022ec:	def512e3          	bne	a0,a5,800020d0 <_vsnprintf+0x8c>
    800022f0:	000a3703          	ld	a4,0(s4)
    800022f4:	01000793          	li	a5,16
    800022f8:	02146413          	ori	s0,s0,33
    800022fc:	000d8613          	mv	a2,s11
    80002300:	00f13023          	sd	a5,0(sp)
    80002304:	00813423          	sd	s0,8(sp)
    80002308:	000b8893          	mv	a7,s7
    8000230c:	01000813          	li	a6,16
    80002310:	00000793          	li	a5,0
    80002314:	000d0693          	mv	a3,s10
    80002318:	00048593          	mv	a1,s1
    8000231c:	00090513          	mv	a0,s2
    80002320:	875ff0ef          	jal	ra,80001b94 <_ntoa_long>
    80002324:	008a0a13          	addi	s4,s4,8
    80002328:	00050d93          	mv	s11,a0
    8000232c:	db9ff06f          	j	800020e4 <_vsnprintf+0xa0>
    80002330:	05800793          	li	a5,88
    80002334:	d8f51ee3          	bne	a0,a5,800020d0 <_vsnprintf+0x8c>
    80002338:	02046413          	ori	s0,s0,32
    8000233c:	01000813          	li	a6,16
    80002340:	40047793          	andi	a5,s0,1024
    80002344:	ff347413          	andi	s0,s0,-13
    80002348:	00078663          	beqz	a5,80002354 <_vsnprintf+0x310>
    8000234c:	ffe47413          	andi	s0,s0,-2
    80002350:	0004041b          	sext.w	s0,s0
    80002354:	06900793          	li	a5,105
    80002358:	008a0b13          	addi	s6,s4,8
    8000235c:	24f50a63          	beq	a0,a5,800025b0 <_vsnprintf+0x56c>
    80002360:	06400793          	li	a5,100
    80002364:	24f50663          	beq	a0,a5,800025b0 <_vsnprintf+0x56c>
    80002368:	20047793          	andi	a5,s0,512
    8000236c:	00040713          	mv	a4,s0
    80002370:	48079463          	bnez	a5,800027f8 <_vsnprintf+0x7b4>
    80002374:	10047793          	andi	a5,s0,256
    80002378:	4c079c63          	bnez	a5,80002850 <_vsnprintf+0x80c>
    8000237c:	04077793          	andi	a5,a4,64
    80002380:	4a079063          	bnez	a5,80002820 <_vsnprintf+0x7dc>
    80002384:	08077713          	andi	a4,a4,128
    80002388:	4e070e63          	beqz	a4,80002884 <_vsnprintf+0x840>
    8000238c:	000a2703          	lw	a4,0(s4)
    80002390:	02813783          	ld	a5,40(sp)
    80002394:	00f77733          	and	a4,a4,a5
    80002398:	02071713          	slli	a4,a4,0x20
    8000239c:	000d8613          	mv	a2,s11
    800023a0:	00813423          	sd	s0,8(sp)
    800023a4:	01913023          	sd	s9,0(sp)
    800023a8:	000b8893          	mv	a7,s7
    800023ac:	00000793          	li	a5,0
    800023b0:	02075713          	srli	a4,a4,0x20
    800023b4:	2540006f          	j	80002608 <_vsnprintf+0x5c4>
    800023b8:	001c4503          	lbu	a0,1(s8)
    800023bc:	00900593          	li	a1,9
    800023c0:	00070613          	mv	a2,a4
    800023c4:	fd05079b          	addiw	a5,a0,-48
    800023c8:	0ff7f793          	zext.b	a5,a5
    800023cc:	40046413          	ori	s0,s0,1024
    800023d0:	16f5f863          	bgeu	a1,a5,80002540 <_vsnprintf+0x4fc>
    800023d4:	02a00793          	li	a5,42
    800023d8:	26f50063          	beq	a0,a5,80002638 <_vsnprintf+0x5f4>
    800023dc:	00070c13          	mv	s8,a4
    800023e0:	00170713          	addi	a4,a4,1
    800023e4:	d69ff06f          	j	8000214c <_vsnprintf+0x108>
    800023e8:	00000c93          	li	s9,0
    800023ec:	00900613          	li	a2,9
    800023f0:	002c979b          	slliw	a5,s9,0x2
    800023f4:	019787bb          	addw	a5,a5,s9
    800023f8:	0017979b          	slliw	a5,a5,0x1
    800023fc:	00a787bb          	addw	a5,a5,a0
    80002400:	00074503          	lbu	a0,0(a4)
    80002404:	fd078c9b          	addiw	s9,a5,-48
    80002408:	00070c13          	mv	s8,a4
    8000240c:	fd05079b          	addiw	a5,a0,-48
    80002410:	0ff7f793          	zext.b	a5,a5
    80002414:	00170713          	addi	a4,a4,1
    80002418:	fcf67ce3          	bgeu	a2,a5,800023f0 <_vsnprintf+0x3ac>
    8000241c:	d25ff06f          	j	80002140 <_vsnprintf+0xfc>
    80002420:	000a2783          	lw	a5,0(s4)
    80002424:	008a0a13          	addi	s4,s4,8
    80002428:	00078c9b          	sext.w	s9,a5
    8000242c:	0007ca63          	bltz	a5,80002440 <_vsnprintf+0x3fc>
    80002430:	001c4503          	lbu	a0,1(s8)
    80002434:	00070c13          	mv	s8,a4
    80002438:	00170713          	addi	a4,a4,1
    8000243c:	d05ff06f          	j	80002140 <_vsnprintf+0xfc>
    80002440:	001c4503          	lbu	a0,1(s8)
    80002444:	00246413          	ori	s0,s0,2
    80002448:	00070c13          	mv	s8,a4
    8000244c:	40f00cbb          	negw	s9,a5
    80002450:	00170713          	addi	a4,a4,1
    80002454:	cedff06f          	j	80002140 <_vsnprintf+0xfc>
    80002458:	001c4503          	lbu	a0,1(s8)
    8000245c:	06c00793          	li	a5,108
    80002460:	d0f51ee3          	bne	a0,a5,8000217c <_vsnprintf+0x138>
    80002464:	002c4503          	lbu	a0,2(s8)
    80002468:	30046413          	ori	s0,s0,768
    8000246c:	003c0713          	addi	a4,s8,3
    80002470:	d15ff06f          	j	80002184 <_vsnprintf+0x140>
    80002474:	001c4503          	lbu	a0,1(s8)
    80002478:	06800793          	li	a5,104
    8000247c:	2af50463          	beq	a0,a5,80002724 <_vsnprintf+0x6e0>
    80002480:	08046413          	ori	s0,s0,128
    80002484:	00170713          	addi	a4,a4,1
    80002488:	cfdff06f          	j	80002184 <_vsnprintf+0x140>
    8000248c:	000a3783          	ld	a5,0(s4)
    80002490:	008a0713          	addi	a4,s4,8
    80002494:	02e13823          	sd	a4,48(sp)
    80002498:	0007c603          	lbu	a2,0(a5)
    8000249c:	00f13c23          	sd	a5,24(sp)
    800024a0:	00060513          	mv	a0,a2
    800024a4:	180b9063          	bnez	s7,80002624 <_vsnprintf+0x5e0>
    800024a8:	ffe00b13          	li	s6,-2
    800024ac:	3c060863          	beqz	a2,8000287c <_vsnprintf+0x838>
    800024b0:	01813783          	ld	a5,24(sp)
    800024b4:	001b0b13          	addi	s6,s6,1
    800024b8:	01678b33          	add	s6,a5,s6
    800024bc:	0080006f          	j	800024c4 <_vsnprintf+0x480>
    800024c0:	24fb0c63          	beq	s6,a5,80002718 <_vsnprintf+0x6d4>
    800024c4:	0017c703          	lbu	a4,1(a5)
    800024c8:	00178793          	addi	a5,a5,1
    800024cc:	fe071ae3          	bnez	a4,800024c0 <_vsnprintf+0x47c>
    800024d0:	01813703          	ld	a4,24(sp)
    800024d4:	40e78b3b          	subw	s6,a5,a4
    800024d8:	40047a13          	andi	s4,s0,1024
    800024dc:	000a0a63          	beqz	s4,800024f0 <_vsnprintf+0x4ac>
    800024e0:	000b8793          	mv	a5,s7
    800024e4:	017b7463          	bgeu	s6,s7,800024ec <_vsnprintf+0x4a8>
    800024e8:	000b0793          	mv	a5,s6
    800024ec:	00078b1b          	sext.w	s6,a5
    800024f0:	00247793          	andi	a5,s0,2
    800024f4:	02f13c23          	sd	a5,56(sp)
    800024f8:	26078063          	beqz	a5,80002758 <_vsnprintf+0x714>
    800024fc:	1c060863          	beqz	a2,800026cc <_vsnprintf+0x688>
    80002500:	000d8613          	mv	a2,s11
    80002504:	000a0863          	beqz	s4,80002514 <_vsnprintf+0x4d0>
    80002508:	fffb879b          	addiw	a5,s7,-1
    8000250c:	1a0b8863          	beqz	s7,800026bc <_vsnprintf+0x678>
    80002510:	00078b93          	mv	s7,a5
    80002514:	000d0693          	mv	a3,s10
    80002518:	00048593          	mv	a1,s1
    8000251c:	00160413          	addi	s0,a2,1
    80002520:	000900e7          	jalr	s2
    80002524:	01813703          	ld	a4,24(sp)
    80002528:	41b407b3          	sub	a5,s0,s11
    8000252c:	00f707b3          	add	a5,a4,a5
    80002530:	0007c503          	lbu	a0,0(a5)
    80002534:	18050663          	beqz	a0,800026c0 <_vsnprintf+0x67c>
    80002538:	00040613          	mv	a2,s0
    8000253c:	fc9ff06f          	j	80002504 <_vsnprintf+0x4c0>
    80002540:	00900713          	li	a4,9
    80002544:	002b979b          	slliw	a5,s7,0x2
    80002548:	017787bb          	addw	a5,a5,s7
    8000254c:	00160613          	addi	a2,a2,1
    80002550:	0017979b          	slliw	a5,a5,0x1
    80002554:	00a787bb          	addw	a5,a5,a0
    80002558:	00064503          	lbu	a0,0(a2)
    8000255c:	fd078b9b          	addiw	s7,a5,-48
    80002560:	fd05079b          	addiw	a5,a0,-48
    80002564:	0ff7f793          	zext.b	a5,a5
    80002568:	fcf77ee3          	bgeu	a4,a5,80002544 <_vsnprintf+0x500>
    8000256c:	00060c13          	mv	s8,a2
    80002570:	00160713          	addi	a4,a2,1
    80002574:	bd9ff06f          	j	8000214c <_vsnprintf+0x108>
    80002578:	01000813          	li	a6,16
    8000257c:	40047793          	andi	a5,s0,1024
    80002580:	dcc502e3          	beq	a0,a2,80002344 <_vsnprintf+0x300>
    80002584:	06f00793          	li	a5,111
    80002588:	00800813          	li	a6,8
    8000258c:	00f50663          	beq	a0,a5,80002598 <_vsnprintf+0x554>
    80002590:	fef47413          	andi	s0,s0,-17
    80002594:	00a00813          	li	a6,10
    80002598:	40047793          	andi	a5,s0,1024
    8000259c:	06900713          	li	a4,105
    800025a0:	00078613          	mv	a2,a5
    800025a4:	18e51c63          	bne	a0,a4,8000273c <_vsnprintf+0x6f8>
    800025a8:	da0612e3          	bnez	a2,8000234c <_vsnprintf+0x308>
    800025ac:	008a0b13          	addi	s6,s4,8
    800025b0:	20047793          	andi	a5,s0,512
    800025b4:	00040713          	mv	a4,s0
    800025b8:	20079063          	bnez	a5,800027b8 <_vsnprintf+0x774>
    800025bc:	10047793          	andi	a5,s0,256
    800025c0:	26079463          	bnez	a5,80002828 <_vsnprintf+0x7e4>
    800025c4:	04077613          	andi	a2,a4,64
    800025c8:	000a2783          	lw	a5,0(s4)
    800025cc:	24061463          	bnez	a2,80002814 <_vsnprintf+0x7d0>
    800025d0:	08077713          	andi	a4,a4,128
    800025d4:	28070c63          	beqz	a4,8000286c <_vsnprintf+0x828>
    800025d8:	0107979b          	slliw	a5,a5,0x10
    800025dc:	4107d79b          	sraiw	a5,a5,0x10
    800025e0:	40f7d61b          	sraiw	a2,a5,0xf
    800025e4:	00c7c733          	xor	a4,a5,a2
    800025e8:	40c7073b          	subw	a4,a4,a2
    800025ec:	03071713          	slli	a4,a4,0x30
    800025f0:	03075713          	srli	a4,a4,0x30
    800025f4:	000d8613          	mv	a2,s11
    800025f8:	00813423          	sd	s0,8(sp)
    800025fc:	01913023          	sd	s9,0(sp)
    80002600:	000b8893          	mv	a7,s7
    80002604:	01f7d79b          	srliw	a5,a5,0x1f
    80002608:	000d0693          	mv	a3,s10
    8000260c:	00048593          	mv	a1,s1
    80002610:	00090513          	mv	a0,s2
    80002614:	d80ff0ef          	jal	ra,80001b94 <_ntoa_long>
    80002618:	00050d93          	mv	s11,a0
    8000261c:	000b0a13          	mv	s4,s6
    80002620:	ac5ff06f          	j	800020e4 <_vsnprintf+0xa0>
    80002624:	020b9b13          	slli	s6,s7,0x20
    80002628:	020b5b13          	srli	s6,s6,0x20
    8000262c:	24060863          	beqz	a2,8000287c <_vsnprintf+0x838>
    80002630:	fffb0b13          	addi	s6,s6,-1
    80002634:	e7dff06f          	j	800024b0 <_vsnprintf+0x46c>
    80002638:	000a2783          	lw	a5,0(s4)
    8000263c:	002c4503          	lbu	a0,2(s8)
    80002640:	002c0c13          	addi	s8,s8,2
    80002644:	fff7c893          	not	a7,a5
    80002648:	43f8d893          	srai	a7,a7,0x3f
    8000264c:	00f8fbb3          	and	s7,a7,a5
    80002650:	008a0a13          	addi	s4,s4,8
    80002654:	001c0713          	addi	a4,s8,1
    80002658:	af5ff06f          	j	8000214c <_vsnprintf+0x108>
    8000265c:	00100793          	li	a5,1
    80002660:	2397fc63          	bgeu	a5,s9,80002898 <_vsnprintf+0x854>
    80002664:	ffec841b          	addiw	s0,s9,-2
    80002668:	02041413          	slli	s0,s0,0x20
    8000266c:	001d8b13          	addi	s6,s11,1
    80002670:	02045413          	srli	s0,s0,0x20
    80002674:	008b0433          	add	s0,s6,s0
    80002678:	0080006f          	j	80002680 <_vsnprintf+0x63c>
    8000267c:	001b0b13          	addi	s6,s6,1
    80002680:	000d8613          	mv	a2,s11
    80002684:	000d0693          	mv	a3,s10
    80002688:	00048593          	mv	a1,s1
    8000268c:	02000513          	li	a0,32
    80002690:	000b0d93          	mv	s11,s6
    80002694:	000900e7          	jalr	s2
    80002698:	fe8b12e3          	bne	s6,s0,8000267c <_vsnprintf+0x638>
    8000269c:	000a4503          	lbu	a0,0(s4)
    800026a0:	000d0693          	mv	a3,s10
    800026a4:	00040613          	mv	a2,s0
    800026a8:	00048593          	mv	a1,s1
    800026ac:	00140d93          	addi	s11,s0,1
    800026b0:	000900e7          	jalr	s2
    800026b4:	000b8a13          	mv	s4,s7
    800026b8:	b4dff06f          	j	80002204 <_vsnprintf+0x1c0>
    800026bc:	00060413          	mv	s0,a2
    800026c0:	03813783          	ld	a5,56(sp)
    800026c4:	04078463          	beqz	a5,8000270c <_vsnprintf+0x6c8>
    800026c8:	00040d93          	mv	s11,s0
    800026cc:	0f9b7263          	bgeu	s6,s9,800027b0 <_vsnprintf+0x76c>
    800026d0:	fffc871b          	addiw	a4,s9,-1
    800026d4:	4167073b          	subw	a4,a4,s6
    800026d8:	02071713          	slli	a4,a4,0x20
    800026dc:	02075713          	srli	a4,a4,0x20
    800026e0:	001d8b13          	addi	s6,s11,1
    800026e4:	01670433          	add	s0,a4,s6
    800026e8:	0080006f          	j	800026f0 <_vsnprintf+0x6ac>
    800026ec:	001b0b13          	addi	s6,s6,1
    800026f0:	000d8613          	mv	a2,s11
    800026f4:	000d0693          	mv	a3,s10
    800026f8:	00048593          	mv	a1,s1
    800026fc:	02000513          	li	a0,32
    80002700:	000b0d93          	mv	s11,s6
    80002704:	000900e7          	jalr	s2
    80002708:	ff6412e3          	bne	s0,s6,800026ec <_vsnprintf+0x6a8>
    8000270c:	03013a03          	ld	s4,48(sp)
    80002710:	00040d93          	mv	s11,s0
    80002714:	9d1ff06f          	j	800020e4 <_vsnprintf+0xa0>
    80002718:	01813783          	ld	a5,24(sp)
    8000271c:	40fb0b3b          	subw	s6,s6,a5
    80002720:	db9ff06f          	j	800024d8 <_vsnprintf+0x494>
    80002724:	002c4503          	lbu	a0,2(s8)
    80002728:	0c046413          	ori	s0,s0,192
    8000272c:	003c0713          	addi	a4,s8,3
    80002730:	a55ff06f          	j	80002184 <_vsnprintf+0x140>
    80002734:	00200813          	li	a6,2
    80002738:	40047793          	andi	a5,s0,1024
    8000273c:	06400713          	li	a4,100
    80002740:	c0e512e3          	bne	a0,a4,80002344 <_vsnprintf+0x300>
    80002744:	e60784e3          	beqz	a5,800025ac <_vsnprintf+0x568>
    80002748:	c05ff06f          	j	8000234c <_vsnprintf+0x308>
    8000274c:	00000413          	li	s0,0
    80002750:	adade4e3          	bltu	s11,s10,80002218 <_vsnprintf+0x1d4>
    80002754:	ac1ff06f          	j	80002214 <_vsnprintf+0x1d0>
    80002758:	001b079b          	addiw	a5,s6,1
    8000275c:	159b7263          	bgeu	s6,s9,800028a0 <_vsnprintf+0x85c>
    80002760:	fffc879b          	addiw	a5,s9,-1
    80002764:	41678b3b          	subw	s6,a5,s6
    80002768:	020b1793          	slli	a5,s6,0x20
    8000276c:	0207d793          	srli	a5,a5,0x20
    80002770:	001d8b13          	addi	s6,s11,1
    80002774:	01678433          	add	s0,a5,s6
    80002778:	0080006f          	j	80002780 <_vsnprintf+0x73c>
    8000277c:	001b0b13          	addi	s6,s6,1
    80002780:	000d8613          	mv	a2,s11
    80002784:	000d0693          	mv	a3,s10
    80002788:	00048593          	mv	a1,s1
    8000278c:	02000513          	li	a0,32
    80002790:	000b0d93          	mv	s11,s6
    80002794:	000900e7          	jalr	s2
    80002798:	ff6412e3          	bne	s0,s6,8000277c <_vsnprintf+0x738>
    8000279c:	01813783          	ld	a5,24(sp)
    800027a0:	001c8b1b          	addiw	s6,s9,1
    800027a4:	0007c603          	lbu	a2,0(a5)
    800027a8:	00060513          	mv	a0,a2
    800027ac:	d4061ae3          	bnez	a2,80002500 <_vsnprintf+0x4bc>
    800027b0:	000d8413          	mv	s0,s11
    800027b4:	f59ff06f          	j	8000270c <_vsnprintf+0x6c8>
    800027b8:	000a3783          	ld	a5,0(s4)
    800027bc:	000d8613          	mv	a2,s11
    800027c0:	00813423          	sd	s0,8(sp)
    800027c4:	43f7d713          	srai	a4,a5,0x3f
    800027c8:	00f745b3          	xor	a1,a4,a5
    800027cc:	01913023          	sd	s9,0(sp)
    800027d0:	000b8893          	mv	a7,s7
    800027d4:	03f7d793          	srli	a5,a5,0x3f
    800027d8:	40e58733          	sub	a4,a1,a4
    800027dc:	000d0693          	mv	a3,s10
    800027e0:	00048593          	mv	a1,s1
    800027e4:	00090513          	mv	a0,s2
    800027e8:	bacff0ef          	jal	ra,80001b94 <_ntoa_long>
    800027ec:	00050d93          	mv	s11,a0
    800027f0:	000b0a13          	mv	s4,s6
    800027f4:	8f1ff06f          	j	800020e4 <_vsnprintf+0xa0>
    800027f8:	000a3703          	ld	a4,0(s4)
    800027fc:	000d8613          	mv	a2,s11
    80002800:	00813423          	sd	s0,8(sp)
    80002804:	01913023          	sd	s9,0(sp)
    80002808:	000b8893          	mv	a7,s7
    8000280c:	00000793          	li	a5,0
    80002810:	fcdff06f          	j	800027dc <_vsnprintf+0x798>
    80002814:	0ff7f793          	zext.b	a5,a5
    80002818:	00078713          	mv	a4,a5
    8000281c:	dd9ff06f          	j	800025f4 <_vsnprintf+0x5b0>
    80002820:	000a4703          	lbu	a4,0(s4)
    80002824:	b75ff06f          	j	80002398 <_vsnprintf+0x354>
    80002828:	000a3783          	ld	a5,0(s4)
    8000282c:	000d8613          	mv	a2,s11
    80002830:	00813423          	sd	s0,8(sp)
    80002834:	43f7d713          	srai	a4,a5,0x3f
    80002838:	00f745b3          	xor	a1,a4,a5
    8000283c:	01913023          	sd	s9,0(sp)
    80002840:	000b8893          	mv	a7,s7
    80002844:	03f7d793          	srli	a5,a5,0x3f
    80002848:	40e58733          	sub	a4,a1,a4
    8000284c:	dbdff06f          	j	80002608 <_vsnprintf+0x5c4>
    80002850:	000a3703          	ld	a4,0(s4)
    80002854:	000d8613          	mv	a2,s11
    80002858:	00813423          	sd	s0,8(sp)
    8000285c:	01913023          	sd	s9,0(sp)
    80002860:	000b8893          	mv	a7,s7
    80002864:	00000793          	li	a5,0
    80002868:	da1ff06f          	j	80002608 <_vsnprintf+0x5c4>
    8000286c:	41f7d61b          	sraiw	a2,a5,0x1f
    80002870:	00c7c733          	xor	a4,a5,a2
    80002874:	40c7073b          	subw	a4,a4,a2
    80002878:	d7dff06f          	j	800025f4 <_vsnprintf+0x5b0>
    8000287c:	00000b13          	li	s6,0
    80002880:	c59ff06f          	j	800024d8 <_vsnprintf+0x494>
    80002884:	000a2703          	lw	a4,0(s4)
    80002888:	b11ff06f          	j	80002398 <_vsnprintf+0x354>
    8000288c:	00040d93          	mv	s11,s0
    80002890:	000b8a13          	mv	s4,s7
    80002894:	971ff06f          	j	80002204 <_vsnprintf+0x1c0>
    80002898:	000d8413          	mv	s0,s11
    8000289c:	e01ff06f          	j	8000269c <_vsnprintf+0x658>
    800028a0:	00078b13          	mv	s6,a5
    800028a4:	f05ff06f          	j	800027a8 <_vsnprintf+0x764>

Disassembly of section .text.printf_:

00000000800028a8 <printf_>:
    800028a8:	fa010113          	addi	sp,sp,-96
    800028ac:	02810313          	addi	t1,sp,40
    800028b0:	02b13423          	sd	a1,40(sp)
    800028b4:	02c13823          	sd	a2,48(sp)
    800028b8:	02d13c23          	sd	a3,56(sp)
    800028bc:	04e13023          	sd	a4,64(sp)
    800028c0:	00050693          	mv	a3,a0
    800028c4:	00010593          	mv	a1,sp
    800028c8:	00030713          	mv	a4,t1
    800028cc:	fff00613          	li	a2,-1
    800028d0:	fffff517          	auipc	a0,0xfffff
    800028d4:	76850513          	addi	a0,a0,1896 # 80002038 <_out_char>
    800028d8:	00113c23          	sd	ra,24(sp)
    800028dc:	04f13423          	sd	a5,72(sp)
    800028e0:	05013823          	sd	a6,80(sp)
    800028e4:	05113c23          	sd	a7,88(sp)
    800028e8:	00613423          	sd	t1,8(sp)
    800028ec:	f58ff0ef          	jal	ra,80002044 <_vsnprintf>
    800028f0:	01813083          	ld	ra,24(sp)
    800028f4:	06010113          	addi	sp,sp,96
    800028f8:	00008067          	ret
